   1              		.syntax unified
   2              		.cpu cortex-m4
   3              		.eabi_attribute 27, 3
   4              		.fpu fpv4-sp-d16
   5              		.eabi_attribute 20, 1
   6              		.eabi_attribute 21, 1
   7              		.eabi_attribute 23, 3
   8              		.eabi_attribute 24, 1
   9              		.eabi_attribute 25, 1
  10              		.eabi_attribute 26, 1
  11              		.eabi_attribute 30, 6
  12              		.eabi_attribute 34, 1
  13              		.eabi_attribute 18, 4
  14              		.thumb
  15              		.file	"gpt.c"
  16              		.text
  17              	.Ltext0:
  18              		.cfi_sections	.debug_frame
  19              		.section	.text.gptInit,"ax",%progbits
  20              		.align	2
  21              		.p2align 4,,15
  22              		.global	gptInit
  23              		.thumb
  24              		.thumb_func
  26              	gptInit:
  27              	.LFB118:
  28              		.file 1 "/usr/src/chibiostest/os/hal/src/gpt.c"
   1:/usr/src/chibiostest/os/hal/src/gpt.c **** /*
   2:/usr/src/chibiostest/os/hal/src/gpt.c ****     ChibiOS/RT - Copyright (C) 2006,2007,2008,2009,2010,
   3:/usr/src/chibiostest/os/hal/src/gpt.c ****                  2011,2012 Giovanni Di Sirio.
   4:/usr/src/chibiostest/os/hal/src/gpt.c **** 
   5:/usr/src/chibiostest/os/hal/src/gpt.c ****     This file is part of ChibiOS/RT.
   6:/usr/src/chibiostest/os/hal/src/gpt.c **** 
   7:/usr/src/chibiostest/os/hal/src/gpt.c ****     ChibiOS/RT is free software; you can redistribute it and/or modify
   8:/usr/src/chibiostest/os/hal/src/gpt.c ****     it under the terms of the GNU General Public License as published by
   9:/usr/src/chibiostest/os/hal/src/gpt.c ****     the Free Software Foundation; either version 3 of the License, or
  10:/usr/src/chibiostest/os/hal/src/gpt.c ****     (at your option) any later version.
  11:/usr/src/chibiostest/os/hal/src/gpt.c **** 
  12:/usr/src/chibiostest/os/hal/src/gpt.c ****     ChibiOS/RT is distributed in the hope that it will be useful,
  13:/usr/src/chibiostest/os/hal/src/gpt.c ****     but WITHOUT ANY WARRANTY; without even the implied warranty of
  14:/usr/src/chibiostest/os/hal/src/gpt.c ****     MERCHANTABILITY or FITNESS FOR A PARTICULAR PURPOSE.  See the
  15:/usr/src/chibiostest/os/hal/src/gpt.c ****     GNU General Public License for more details.
  16:/usr/src/chibiostest/os/hal/src/gpt.c **** 
  17:/usr/src/chibiostest/os/hal/src/gpt.c ****     You should have received a copy of the GNU General Public License
  18:/usr/src/chibiostest/os/hal/src/gpt.c ****     along with this program.  If not, see <http://www.gnu.org/licenses/>.
  19:/usr/src/chibiostest/os/hal/src/gpt.c **** */
  20:/usr/src/chibiostest/os/hal/src/gpt.c **** 
  21:/usr/src/chibiostest/os/hal/src/gpt.c **** /**
  22:/usr/src/chibiostest/os/hal/src/gpt.c ****  * @file    gpt.c
  23:/usr/src/chibiostest/os/hal/src/gpt.c ****  * @brief   GPT Driver code.
  24:/usr/src/chibiostest/os/hal/src/gpt.c ****  *
  25:/usr/src/chibiostest/os/hal/src/gpt.c ****  * @addtogroup GPT
  26:/usr/src/chibiostest/os/hal/src/gpt.c ****  * @{
  27:/usr/src/chibiostest/os/hal/src/gpt.c ****  */
  28:/usr/src/chibiostest/os/hal/src/gpt.c **** 
  29:/usr/src/chibiostest/os/hal/src/gpt.c **** #include "ch.h"
  30:/usr/src/chibiostest/os/hal/src/gpt.c **** #include "hal.h"
  31:/usr/src/chibiostest/os/hal/src/gpt.c **** 
  32:/usr/src/chibiostest/os/hal/src/gpt.c **** #if HAL_USE_GPT || defined(__DOXYGEN__)
  33:/usr/src/chibiostest/os/hal/src/gpt.c **** 
  34:/usr/src/chibiostest/os/hal/src/gpt.c **** /*===========================================================================*/
  35:/usr/src/chibiostest/os/hal/src/gpt.c **** /* Driver local definitions.                                                 */
  36:/usr/src/chibiostest/os/hal/src/gpt.c **** /*===========================================================================*/
  37:/usr/src/chibiostest/os/hal/src/gpt.c **** 
  38:/usr/src/chibiostest/os/hal/src/gpt.c **** /*===========================================================================*/
  39:/usr/src/chibiostest/os/hal/src/gpt.c **** /* Driver exported variables.                                                */
  40:/usr/src/chibiostest/os/hal/src/gpt.c **** /*===========================================================================*/
  41:/usr/src/chibiostest/os/hal/src/gpt.c **** 
  42:/usr/src/chibiostest/os/hal/src/gpt.c **** /*===========================================================================*/
  43:/usr/src/chibiostest/os/hal/src/gpt.c **** /* Driver local variables.                                                   */
  44:/usr/src/chibiostest/os/hal/src/gpt.c **** /*===========================================================================*/
  45:/usr/src/chibiostest/os/hal/src/gpt.c **** 
  46:/usr/src/chibiostest/os/hal/src/gpt.c **** /*===========================================================================*/
  47:/usr/src/chibiostest/os/hal/src/gpt.c **** /* Driver local functions.                                                   */
  48:/usr/src/chibiostest/os/hal/src/gpt.c **** /*===========================================================================*/
  49:/usr/src/chibiostest/os/hal/src/gpt.c **** 
  50:/usr/src/chibiostest/os/hal/src/gpt.c **** /*===========================================================================*/
  51:/usr/src/chibiostest/os/hal/src/gpt.c **** /* Driver exported functions.                                                */
  52:/usr/src/chibiostest/os/hal/src/gpt.c **** /*===========================================================================*/
  53:/usr/src/chibiostest/os/hal/src/gpt.c **** 
  54:/usr/src/chibiostest/os/hal/src/gpt.c **** /**
  55:/usr/src/chibiostest/os/hal/src/gpt.c ****  * @brief   GPT Driver initialization.
  56:/usr/src/chibiostest/os/hal/src/gpt.c ****  * @note    This function is implicitly invoked by @p halInit(), there is
  57:/usr/src/chibiostest/os/hal/src/gpt.c ****  *          no need to explicitly initialize the driver.
  58:/usr/src/chibiostest/os/hal/src/gpt.c ****  *
  59:/usr/src/chibiostest/os/hal/src/gpt.c ****  * @init
  60:/usr/src/chibiostest/os/hal/src/gpt.c ****  */
  61:/usr/src/chibiostest/os/hal/src/gpt.c **** void gptInit(void) {
  29              		.loc 1 61 0
  30              		.cfi_startproc
  31              		@ args = 0, pretend = 0, frame = 0
  32              		@ frame_needed = 0, uses_anonymous_args = 0
  33 0000 08B5     		push	{r3, lr}
  34              		.cfi_def_cfa_offset 8
  35              		.cfi_offset 3, -8
  36              		.cfi_offset 14, -4
  62:/usr/src/chibiostest/os/hal/src/gpt.c **** 
  63:/usr/src/chibiostest/os/hal/src/gpt.c ****   gpt_lld_init();
  37              		.loc 1 63 0
  38 0002 FFF7FEFF 		bl	gpt_lld_init
  64:/usr/src/chibiostest/os/hal/src/gpt.c **** }
  39              		.loc 1 64 0
  40 0006 08BD     		pop	{r3, pc}
  41              		.cfi_endproc
  42              	.LFE118:
  44 0008 AFF30080 		.section	.text.gptObjectInit,"ax",%progbits
  44      AFF30080 
  45              		.align	2
  46              		.p2align 4,,15
  47              		.global	gptObjectInit
  48              		.thumb
  49              		.thumb_func
  51              	gptObjectInit:
  52              	.LFB119:
  65:/usr/src/chibiostest/os/hal/src/gpt.c **** 
  66:/usr/src/chibiostest/os/hal/src/gpt.c **** /**
  67:/usr/src/chibiostest/os/hal/src/gpt.c ****  * @brief   Initializes the standard part of a @p GPTDriver structure.
  68:/usr/src/chibiostest/os/hal/src/gpt.c ****  *
  69:/usr/src/chibiostest/os/hal/src/gpt.c ****  * @param[out] gptp     pointer to the @p GPTDriver object
  70:/usr/src/chibiostest/os/hal/src/gpt.c ****  *
  71:/usr/src/chibiostest/os/hal/src/gpt.c ****  * @init
  72:/usr/src/chibiostest/os/hal/src/gpt.c ****  */
  73:/usr/src/chibiostest/os/hal/src/gpt.c **** void gptObjectInit(GPTDriver *gptp) {
  53              		.loc 1 73 0
  54              		.cfi_startproc
  55              		@ args = 0, pretend = 0, frame = 8
  56              		@ frame_needed = 0, uses_anonymous_args = 0
  57              		@ link register save eliminated.
  58 0000 82B0     		sub	sp, sp, #8
  59              		.cfi_def_cfa_offset 8
  60 0002 0190     		str	r0, [sp, #4]
  74:/usr/src/chibiostest/os/hal/src/gpt.c **** 
  75:/usr/src/chibiostest/os/hal/src/gpt.c ****   gptp->state  = GPT_STOP;
  61              		.loc 1 75 0
  62 0004 019B     		ldr	r3, [sp, #4]
  63 0006 0122     		movs	r2, #1
  64 0008 1A70     		strb	r2, [r3]
  76:/usr/src/chibiostest/os/hal/src/gpt.c ****   gptp->config = NULL;
  65              		.loc 1 76 0
  66 000a 019B     		ldr	r3, [sp, #4]
  67 000c 0022     		movs	r2, #0
  68 000e 5A60     		str	r2, [r3, #4]
  77:/usr/src/chibiostest/os/hal/src/gpt.c **** }
  69              		.loc 1 77 0
  70 0010 02B0     		add	sp, sp, #8
  71              		@ sp needed
  72 0012 7047     		bx	lr
  73              		.cfi_endproc
  74              	.LFE119:
  76 0014 AFF30080 		.section	.rodata
  76      AFF30080 
  76      AFF30080 
  77              		.align	2
  78              	.LC0:
  79 0000 22707453 		.ascii	"\"ptStart\"()\000"
  79      74617274 
  79      22282900 
  80              		.align	2
  81              	.LC1:
  82 000c 67707453 		.ascii	"gptStart(), #1\000"
  82      74617274 
  82      28292C20 
  82      233100
  83              		.section	.text.gptStart,"ax",%progbits
  84              		.align	2
  85              		.p2align 4,,15
  86              		.global	gptStart
  87              		.thumb
  88              		.thumb_func
  90              	gptStart:
  91              	.LFB120:
  78:/usr/src/chibiostest/os/hal/src/gpt.c **** 
  79:/usr/src/chibiostest/os/hal/src/gpt.c **** /**
  80:/usr/src/chibiostest/os/hal/src/gpt.c ****  * @brief   Configures and activates the GPT peripheral.
  81:/usr/src/chibiostest/os/hal/src/gpt.c ****  *
  82:/usr/src/chibiostest/os/hal/src/gpt.c ****  * @param[in] gptp      pointer to the @p GPTDriver object
  83:/usr/src/chibiostest/os/hal/src/gpt.c ****  * @param[in] config    pointer to the @p GPTConfig object
  84:/usr/src/chibiostest/os/hal/src/gpt.c ****  *
  85:/usr/src/chibiostest/os/hal/src/gpt.c ****  * @api
  86:/usr/src/chibiostest/os/hal/src/gpt.c ****  */
  87:/usr/src/chibiostest/os/hal/src/gpt.c **** void gptStart(GPTDriver *gptp, const GPTConfig *config) {
  92              		.loc 1 87 0
  93              		.cfi_startproc
  94              		@ args = 0, pretend = 0, frame = 8
  95              		@ frame_needed = 0, uses_anonymous_args = 0
  96 0000 00B5     		push	{lr}
  97              		.cfi_def_cfa_offset 4
  98              		.cfi_offset 14, -4
  99 0002 83B0     		sub	sp, sp, #12
 100              		.cfi_def_cfa_offset 16
 101 0004 0190     		str	r0, [sp, #4]
 102 0006 0091     		str	r1, [sp]
  88:/usr/src/chibiostest/os/hal/src/gpt.c **** 
  89:/usr/src/chibiostest/os/hal/src/gpt.c ****   chDbgCheck((gptp != NULL) && (config != NULL), "ptStart");
 103              		.loc 1 89 0
 104 0008 019B     		ldr	r3, [sp, #4]
 105 000a 002B     		cmp	r3, #0
 106 000c 02D0     		beq	.L4
 107              		.loc 1 89 0 is_stmt 0 discriminator 2
 108 000e 009B     		ldr	r3, [sp]
 109 0010 002B     		cmp	r3, #0
 110 0012 02D1     		bne	.L5
 111              	.L4:
 112              		.loc 1 89 0 discriminator 1
 113 0014 1148     		ldr	r0, .L7
 114 0016 FFF7FEFF 		bl	chDbgPanic
 115              	.L5:
 116              	.LBB2:
  90:/usr/src/chibiostest/os/hal/src/gpt.c **** 
  91:/usr/src/chibiostest/os/hal/src/gpt.c ****   chSysLock();
 117              		.loc 1 91 0 is_stmt 1
 118 001a 2023     		movs	r3, #32
 119              	@ 91 "/usr/src/chibiostest/os/hal/src/gpt.c" 1
 120 001c 83F31188 		msr     BASEPRI, r3
 121              	@ 0 "" 2
 122              		.thumb
 123              	.LBE2:
 124 0020 FFF7FEFF 		bl	dbg_check_lock
  92:/usr/src/chibiostest/os/hal/src/gpt.c ****   chDbgAssert((gptp->state == GPT_STOP) || (gptp->state == GPT_READY),
 125              		.loc 1 92 0
 126 0024 019B     		ldr	r3, [sp, #4]
 127 0026 1B78     		ldrb	r3, [r3]	@ zero_extendqisi2
 128 0028 012B     		cmp	r3, #1
 129 002a 06D0     		beq	.L6
 130              		.loc 1 92 0 is_stmt 0 discriminator 1
 131 002c 019B     		ldr	r3, [sp, #4]
 132 002e 1B78     		ldrb	r3, [r3]	@ zero_extendqisi2
 133 0030 022B     		cmp	r3, #2
 134 0032 02D0     		beq	.L6
 135 0034 0A48     		ldr	r0, .L7+4
 136 0036 FFF7FEFF 		bl	chDbgPanic
 137              	.L6:
  93:/usr/src/chibiostest/os/hal/src/gpt.c ****               "gptStart(), #1", "invalid state");
  94:/usr/src/chibiostest/os/hal/src/gpt.c ****   gptp->config = config;
 138              		.loc 1 94 0 is_stmt 1
 139 003a 019B     		ldr	r3, [sp, #4]
 140 003c 009A     		ldr	r2, [sp]
 141 003e 5A60     		str	r2, [r3, #4]
  95:/usr/src/chibiostest/os/hal/src/gpt.c ****   gpt_lld_start(gptp);
 142              		.loc 1 95 0
 143 0040 0198     		ldr	r0, [sp, #4]
 144 0042 FFF7FEFF 		bl	gpt_lld_start
  96:/usr/src/chibiostest/os/hal/src/gpt.c ****   gptp->state = GPT_READY;
 145              		.loc 1 96 0
 146 0046 019B     		ldr	r3, [sp, #4]
 147 0048 0222     		movs	r2, #2
 148 004a 1A70     		strb	r2, [r3]
  97:/usr/src/chibiostest/os/hal/src/gpt.c ****   chSysUnlock();
 149              		.loc 1 97 0
 150 004c FFF7FEFF 		bl	dbg_check_unlock
 151              	.LBB3:
 152 0050 0023     		movs	r3, #0
 153              	@ 97 "/usr/src/chibiostest/os/hal/src/gpt.c" 1
 154 0052 83F31188 		msr     BASEPRI, r3
 155              	@ 0 "" 2
 156              		.thumb
 157              	.LBE3:
  98:/usr/src/chibiostest/os/hal/src/gpt.c **** }
 158              		.loc 1 98 0
 159 0056 03B0     		add	sp, sp, #12
 160              		@ sp needed
 161 0058 5DF804FB 		ldr	pc, [sp], #4
 162              	.L8:
 163              		.align	2
 164              	.L7:
 165 005c 00000000 		.word	.LC0
 166 0060 0C000000 		.word	.LC1
 167              		.cfi_endproc
 168              	.LFE120:
 170 0064 AFF30080 		.section	.rodata
 170      AFF30080 
 170      AFF30080 
 171 001b 00       		.align	2
 172              	.LC2:
 173 001c 22677074 		.ascii	"\"gptStop\"()\000"
 173      53746F70 
 173      22282900 
 174              		.align	2
 175              	.LC3:
 176 0028 67707453 		.ascii	"gptStop(), #1\000"
 176      746F7028 
 176      292C2023 
 176      3100
 177              		.section	.text.gptStop,"ax",%progbits
 178              		.align	2
 179              		.p2align 4,,15
 180              		.global	gptStop
 181              		.thumb
 182              		.thumb_func
 184              	gptStop:
 185              	.LFB121:
  99:/usr/src/chibiostest/os/hal/src/gpt.c **** 
 100:/usr/src/chibiostest/os/hal/src/gpt.c **** /**
 101:/usr/src/chibiostest/os/hal/src/gpt.c ****  * @brief   Deactivates the GPT peripheral.
 102:/usr/src/chibiostest/os/hal/src/gpt.c ****  *
 103:/usr/src/chibiostest/os/hal/src/gpt.c ****  * @param[in] gptp      pointer to the @p GPTDriver object
 104:/usr/src/chibiostest/os/hal/src/gpt.c ****  *
 105:/usr/src/chibiostest/os/hal/src/gpt.c ****  * @api
 106:/usr/src/chibiostest/os/hal/src/gpt.c ****  */
 107:/usr/src/chibiostest/os/hal/src/gpt.c **** void gptStop(GPTDriver *gptp) {
 186              		.loc 1 107 0
 187              		.cfi_startproc
 188              		@ args = 0, pretend = 0, frame = 8
 189              		@ frame_needed = 0, uses_anonymous_args = 0
 190 0000 00B5     		push	{lr}
 191              		.cfi_def_cfa_offset 4
 192              		.cfi_offset 14, -4
 193 0002 83B0     		sub	sp, sp, #12
 194              		.cfi_def_cfa_offset 16
 195 0004 0190     		str	r0, [sp, #4]
 108:/usr/src/chibiostest/os/hal/src/gpt.c **** 
 109:/usr/src/chibiostest/os/hal/src/gpt.c ****   chDbgCheck(gptp != NULL, "gptStop");
 196              		.loc 1 109 0
 197 0006 019B     		ldr	r3, [sp, #4]
 198 0008 002B     		cmp	r3, #0
 199 000a 02D1     		bne	.L10
 200              		.loc 1 109 0 is_stmt 0 discriminator 1
 201 000c 1048     		ldr	r0, .L12
 202 000e FFF7FEFF 		bl	chDbgPanic
 203              	.L10:
 204              	.LBB4:
 110:/usr/src/chibiostest/os/hal/src/gpt.c **** 
 111:/usr/src/chibiostest/os/hal/src/gpt.c ****   chSysLock();
 205              		.loc 1 111 0 is_stmt 1
 206 0012 2023     		movs	r3, #32
 207              	@ 111 "/usr/src/chibiostest/os/hal/src/gpt.c" 1
 208 0014 83F31188 		msr     BASEPRI, r3
 209              	@ 0 "" 2
 210              		.thumb
 211              	.LBE4:
 212 0018 FFF7FEFF 		bl	dbg_check_lock
 112:/usr/src/chibiostest/os/hal/src/gpt.c ****   chDbgAssert((gptp->state == GPT_STOP) || (gptp->state == GPT_READY),
 213              		.loc 1 112 0
 214 001c 019B     		ldr	r3, [sp, #4]
 215 001e 1B78     		ldrb	r3, [r3]	@ zero_extendqisi2
 216 0020 012B     		cmp	r3, #1
 217 0022 06D0     		beq	.L11
 218              		.loc 1 112 0 is_stmt 0 discriminator 1
 219 0024 019B     		ldr	r3, [sp, #4]
 220 0026 1B78     		ldrb	r3, [r3]	@ zero_extendqisi2
 221 0028 022B     		cmp	r3, #2
 222 002a 02D0     		beq	.L11
 223 002c 0948     		ldr	r0, .L12+4
 224 002e FFF7FEFF 		bl	chDbgPanic
 225              	.L11:
 113:/usr/src/chibiostest/os/hal/src/gpt.c ****               "gptStop(), #1", "invalid state");
 114:/usr/src/chibiostest/os/hal/src/gpt.c ****   gpt_lld_stop(gptp);
 226              		.loc 1 114 0 is_stmt 1
 227 0032 0198     		ldr	r0, [sp, #4]
 228 0034 FFF7FEFF 		bl	gpt_lld_stop
 115:/usr/src/chibiostest/os/hal/src/gpt.c ****   gptp->state = GPT_STOP;
 229              		.loc 1 115 0
 230 0038 019B     		ldr	r3, [sp, #4]
 231 003a 0122     		movs	r2, #1
 232 003c 1A70     		strb	r2, [r3]
 116:/usr/src/chibiostest/os/hal/src/gpt.c ****   chSysUnlock();
 233              		.loc 1 116 0
 234 003e FFF7FEFF 		bl	dbg_check_unlock
 235              	.LBB5:
 236 0042 0023     		movs	r3, #0
 237              	@ 116 "/usr/src/chibiostest/os/hal/src/gpt.c" 1
 238 0044 83F31188 		msr     BASEPRI, r3
 239              	@ 0 "" 2
 240              		.thumb
 241              	.LBE5:
 117:/usr/src/chibiostest/os/hal/src/gpt.c **** }
 242              		.loc 1 117 0
 243 0048 03B0     		add	sp, sp, #12
 244              		@ sp needed
 245 004a 5DF804FB 		ldr	pc, [sp], #4
 246              	.L13:
 247 004e 00BF     		.align	2
 248              	.L12:
 249 0050 1C000000 		.word	.LC2
 250 0054 28000000 		.word	.LC3
 251              		.cfi_endproc
 252              	.LFE121:
 254 0058 AFF30080 		.section	.text.gptStartContinuous,"ax",%progbits
 254      AFF30080 
 255              		.align	2
 256              		.p2align 4,,15
 257              		.global	gptStartContinuous
 258              		.thumb
 259              		.thumb_func
 261              	gptStartContinuous:
 262              	.LFB122:
 118:/usr/src/chibiostest/os/hal/src/gpt.c **** 
 119:/usr/src/chibiostest/os/hal/src/gpt.c **** /**
 120:/usr/src/chibiostest/os/hal/src/gpt.c ****  * @brief   Starts the timer in continuous mode.
 121:/usr/src/chibiostest/os/hal/src/gpt.c ****  *
 122:/usr/src/chibiostest/os/hal/src/gpt.c ****  * @param[in] gptp      pointer to the @p GPTDriver object
 123:/usr/src/chibiostest/os/hal/src/gpt.c ****  * @param[in] interval  period in ticks
 124:/usr/src/chibiostest/os/hal/src/gpt.c ****  *
 125:/usr/src/chibiostest/os/hal/src/gpt.c ****  * @api
 126:/usr/src/chibiostest/os/hal/src/gpt.c ****  */
 127:/usr/src/chibiostest/os/hal/src/gpt.c **** void gptStartContinuous(GPTDriver *gptp, gptcnt_t interval) {
 263              		.loc 1 127 0
 264              		.cfi_startproc
 265              		@ args = 0, pretend = 0, frame = 8
 266              		@ frame_needed = 0, uses_anonymous_args = 0
 267 0000 00B5     		push	{lr}
 268              		.cfi_def_cfa_offset 4
 269              		.cfi_offset 14, -4
 270 0002 83B0     		sub	sp, sp, #12
 271              		.cfi_def_cfa_offset 16
 272 0004 0190     		str	r0, [sp, #4]
 273 0006 0B46     		mov	r3, r1
 274 0008 ADF80230 		strh	r3, [sp, #2]	@ movhi
 275              	.LBB6:
 128:/usr/src/chibiostest/os/hal/src/gpt.c **** 
 129:/usr/src/chibiostest/os/hal/src/gpt.c ****   chSysLock();
 276              		.loc 1 129 0
 277 000c 2023     		movs	r3, #32
 278              	@ 129 "/usr/src/chibiostest/os/hal/src/gpt.c" 1
 279 000e 83F31188 		msr     BASEPRI, r3
 280              	@ 0 "" 2
 281              		.thumb
 282              	.LBE6:
 283 0012 FFF7FEFF 		bl	dbg_check_lock
 130:/usr/src/chibiostest/os/hal/src/gpt.c ****   gptStartContinuousI(gptp, interval);
 284              		.loc 1 130 0
 285 0016 BDF80230 		ldrh	r3, [sp, #2]
 286 001a 0198     		ldr	r0, [sp, #4]
 287 001c 1946     		mov	r1, r3
 288 001e FFF7FEFF 		bl	gptStartContinuousI
 131:/usr/src/chibiostest/os/hal/src/gpt.c ****   chSysUnlock();
 289              		.loc 1 131 0
 290 0022 FFF7FEFF 		bl	dbg_check_unlock
 291              	.LBB7:
 292 0026 0023     		movs	r3, #0
 293              	@ 131 "/usr/src/chibiostest/os/hal/src/gpt.c" 1
 294 0028 83F31188 		msr     BASEPRI, r3
 295              	@ 0 "" 2
 296              		.thumb
 297              	.LBE7:
 132:/usr/src/chibiostest/os/hal/src/gpt.c **** }
 298              		.loc 1 132 0
 299 002c 03B0     		add	sp, sp, #12
 300              		@ sp needed
 301 002e 5DF804FB 		ldr	pc, [sp], #4
 302              		.cfi_endproc
 303              	.LFE122:
 305 0032 00BFAFF3 		.section	.rodata
 305      0080AFF3 
 305      0080AFF3 
 305      0080
 306 0036 0000     		.align	2
 307              	.LC4:
 308 0038 22677074 		.ascii	"\"gptStartContinuousI\"()\000"
 308      53746172 
 308      74436F6E 
 308      74696E75 
 308      6F757349 
 309              		.align	2
 310              	.LC5:
 311 0050 67707453 		.ascii	"gptStartContinuousI(), #1\000"
 311      74617274 
 311      436F6E74 
 311      696E756F 
 311      75734928 
 312              		.section	.text.gptStartContinuousI,"ax",%progbits
 313              		.align	2
 314              		.p2align 4,,15
 315              		.global	gptStartContinuousI
 316              		.thumb
 317              		.thumb_func
 319              	gptStartContinuousI:
 320              	.LFB123:
 133:/usr/src/chibiostest/os/hal/src/gpt.c **** 
 134:/usr/src/chibiostest/os/hal/src/gpt.c **** /**
 135:/usr/src/chibiostest/os/hal/src/gpt.c ****  * @brief   Starts the timer in continuous mode.
 136:/usr/src/chibiostest/os/hal/src/gpt.c ****  *
 137:/usr/src/chibiostest/os/hal/src/gpt.c ****  * @param[in] gptp      pointer to the @p GPTDriver object
 138:/usr/src/chibiostest/os/hal/src/gpt.c ****  * @param[in] interval  period in ticks
 139:/usr/src/chibiostest/os/hal/src/gpt.c ****  *
 140:/usr/src/chibiostest/os/hal/src/gpt.c ****  * @iclass
 141:/usr/src/chibiostest/os/hal/src/gpt.c ****  */
 142:/usr/src/chibiostest/os/hal/src/gpt.c **** void gptStartContinuousI(GPTDriver *gptp, gptcnt_t interval) {
 321              		.loc 1 142 0
 322              		.cfi_startproc
 323              		@ args = 0, pretend = 0, frame = 8
 324              		@ frame_needed = 0, uses_anonymous_args = 0
 325 0000 00B5     		push	{lr}
 326              		.cfi_def_cfa_offset 4
 327              		.cfi_offset 14, -4
 328 0002 83B0     		sub	sp, sp, #12
 329              		.cfi_def_cfa_offset 16
 330 0004 0190     		str	r0, [sp, #4]
 331 0006 0B46     		mov	r3, r1
 332 0008 ADF80230 		strh	r3, [sp, #2]	@ movhi
 143:/usr/src/chibiostest/os/hal/src/gpt.c **** 
 144:/usr/src/chibiostest/os/hal/src/gpt.c ****   chDbgCheckClassI();
 333              		.loc 1 144 0
 334 000c FFF7FEFF 		bl	chDbgCheckClassI
 145:/usr/src/chibiostest/os/hal/src/gpt.c ****   chDbgCheck(gptp != NULL, "gptStartContinuousI");
 335              		.loc 1 145 0
 336 0010 019B     		ldr	r3, [sp, #4]
 337 0012 002B     		cmp	r3, #0
 338 0014 02D1     		bne	.L16
 339              		.loc 1 145 0 is_stmt 0 discriminator 1
 340 0016 0B48     		ldr	r0, .L18
 341 0018 FFF7FEFF 		bl	chDbgPanic
 342              	.L16:
 146:/usr/src/chibiostest/os/hal/src/gpt.c ****   chDbgAssert(gptp->state == GPT_READY,
 343              		.loc 1 146 0 is_stmt 1
 344 001c 019B     		ldr	r3, [sp, #4]
 345 001e 1B78     		ldrb	r3, [r3]	@ zero_extendqisi2
 346 0020 022B     		cmp	r3, #2
 347 0022 02D0     		beq	.L17
 348              		.loc 1 146 0 is_stmt 0 discriminator 1
 349 0024 0848     		ldr	r0, .L18+4
 350 0026 FFF7FEFF 		bl	chDbgPanic
 351              	.L17:
 147:/usr/src/chibiostest/os/hal/src/gpt.c ****               "gptStartContinuousI(), #1", "invalid state");
 148:/usr/src/chibiostest/os/hal/src/gpt.c **** 
 149:/usr/src/chibiostest/os/hal/src/gpt.c ****   gptp->state = GPT_CONTINUOUS;
 352              		.loc 1 149 0 is_stmt 1
 353 002a 019B     		ldr	r3, [sp, #4]
 354 002c 0322     		movs	r2, #3
 355 002e 1A70     		strb	r2, [r3]
 150:/usr/src/chibiostest/os/hal/src/gpt.c ****   gpt_lld_start_timer(gptp, interval);
 356              		.loc 1 150 0
 357 0030 BDF80230 		ldrh	r3, [sp, #2]
 358 0034 0198     		ldr	r0, [sp, #4]
 359 0036 1946     		mov	r1, r3
 360 0038 FFF7FEFF 		bl	gpt_lld_start_timer
 151:/usr/src/chibiostest/os/hal/src/gpt.c **** }
 361              		.loc 1 151 0
 362 003c 03B0     		add	sp, sp, #12
 363              		@ sp needed
 364 003e 5DF804FB 		ldr	pc, [sp], #4
 365              	.L19:
 366 0042 00BF     		.align	2
 367              	.L18:
 368 0044 38000000 		.word	.LC4
 369 0048 50000000 		.word	.LC5
 370              		.cfi_endproc
 371              	.LFE123:
 373 004c AFF30080 		.section	.text.gptStartOneShot,"ax",%progbits
 374              		.align	2
 375              		.p2align 4,,15
 376              		.global	gptStartOneShot
 377              		.thumb
 378              		.thumb_func
 380              	gptStartOneShot:
 381              	.LFB124:
 152:/usr/src/chibiostest/os/hal/src/gpt.c **** 
 153:/usr/src/chibiostest/os/hal/src/gpt.c **** /**
 154:/usr/src/chibiostest/os/hal/src/gpt.c ****  * @brief   Starts the timer in one shot mode.
 155:/usr/src/chibiostest/os/hal/src/gpt.c ****  *
 156:/usr/src/chibiostest/os/hal/src/gpt.c ****  * @param[in] gptp      pointer to the @p GPTDriver object
 157:/usr/src/chibiostest/os/hal/src/gpt.c ****  * @param[in] interval  time interval in ticks
 158:/usr/src/chibiostest/os/hal/src/gpt.c ****  *
 159:/usr/src/chibiostest/os/hal/src/gpt.c ****  * @api
 160:/usr/src/chibiostest/os/hal/src/gpt.c ****  */
 161:/usr/src/chibiostest/os/hal/src/gpt.c **** void gptStartOneShot(GPTDriver *gptp, gptcnt_t interval) {
 382              		.loc 1 161 0
 383              		.cfi_startproc
 384              		@ args = 0, pretend = 0, frame = 8
 385              		@ frame_needed = 0, uses_anonymous_args = 0
 386 0000 00B5     		push	{lr}
 387              		.cfi_def_cfa_offset 4
 388              		.cfi_offset 14, -4
 389 0002 83B0     		sub	sp, sp, #12
 390              		.cfi_def_cfa_offset 16
 391 0004 0190     		str	r0, [sp, #4]
 392 0006 0B46     		mov	r3, r1
 393 0008 ADF80230 		strh	r3, [sp, #2]	@ movhi
 394              	.LBB8:
 162:/usr/src/chibiostest/os/hal/src/gpt.c **** 
 163:/usr/src/chibiostest/os/hal/src/gpt.c ****   chSysLock();
 395              		.loc 1 163 0
 396 000c 2023     		movs	r3, #32
 397              	@ 163 "/usr/src/chibiostest/os/hal/src/gpt.c" 1
 398 000e 83F31188 		msr     BASEPRI, r3
 399              	@ 0 "" 2
 400              		.thumb
 401              	.LBE8:
 402 0012 FFF7FEFF 		bl	dbg_check_lock
 164:/usr/src/chibiostest/os/hal/src/gpt.c ****   gptStartOneShotI(gptp, interval);
 403              		.loc 1 164 0
 404 0016 BDF80230 		ldrh	r3, [sp, #2]
 405 001a 0198     		ldr	r0, [sp, #4]
 406 001c 1946     		mov	r1, r3
 407 001e FFF7FEFF 		bl	gptStartOneShotI
 165:/usr/src/chibiostest/os/hal/src/gpt.c ****   chSysUnlock();
 408              		.loc 1 165 0
 409 0022 FFF7FEFF 		bl	dbg_check_unlock
 410              	.LBB9:
 411 0026 0023     		movs	r3, #0
 412              	@ 165 "/usr/src/chibiostest/os/hal/src/gpt.c" 1
 413 0028 83F31188 		msr     BASEPRI, r3
 414              	@ 0 "" 2
 415              		.thumb
 416              	.LBE9:
 166:/usr/src/chibiostest/os/hal/src/gpt.c **** }
 417              		.loc 1 166 0
 418 002c 03B0     		add	sp, sp, #12
 419              		@ sp needed
 420 002e 5DF804FB 		ldr	pc, [sp], #4
 421              		.cfi_endproc
 422              	.LFE124:
 424 0032 00BFAFF3 		.section	.rodata
 424      0080AFF3 
 424      0080AFF3 
 424      0080
 425 006a 0000     		.align	2
 426              	.LC6:
 427 006c 22677074 		.ascii	"\"gptStartOneShotI\"()\000"
 427      53746172 
 427      744F6E65 
 427      53686F74 
 427      49222829 
 428 0081 000000   		.align	2
 429              	.LC7:
 430 0084 67707453 		.ascii	"gptStartOneShotI(), #1\000"
 430      74617274 
 430      4F6E6553 
 430      686F7449 
 430      28292C20 
 431              		.section	.text.gptStartOneShotI,"ax",%progbits
 432              		.align	2
 433              		.p2align 4,,15
 434              		.global	gptStartOneShotI
 435              		.thumb
 436              		.thumb_func
 438              	gptStartOneShotI:
 439              	.LFB125:
 167:/usr/src/chibiostest/os/hal/src/gpt.c **** 
 168:/usr/src/chibiostest/os/hal/src/gpt.c **** /**
 169:/usr/src/chibiostest/os/hal/src/gpt.c ****  * @brief   Starts the timer in one shot mode.
 170:/usr/src/chibiostest/os/hal/src/gpt.c ****  *
 171:/usr/src/chibiostest/os/hal/src/gpt.c ****  * @param[in] gptp      pointer to the @p GPTDriver object
 172:/usr/src/chibiostest/os/hal/src/gpt.c ****  * @param[in] interval  time interval in ticks
 173:/usr/src/chibiostest/os/hal/src/gpt.c ****  *
 174:/usr/src/chibiostest/os/hal/src/gpt.c ****  * @api
 175:/usr/src/chibiostest/os/hal/src/gpt.c ****  */
 176:/usr/src/chibiostest/os/hal/src/gpt.c **** void gptStartOneShotI(GPTDriver *gptp, gptcnt_t interval) {
 440              		.loc 1 176 0
 441              		.cfi_startproc
 442              		@ args = 0, pretend = 0, frame = 8
 443              		@ frame_needed = 0, uses_anonymous_args = 0
 444 0000 00B5     		push	{lr}
 445              		.cfi_def_cfa_offset 4
 446              		.cfi_offset 14, -4
 447 0002 83B0     		sub	sp, sp, #12
 448              		.cfi_def_cfa_offset 16
 449 0004 0190     		str	r0, [sp, #4]
 450 0006 0B46     		mov	r3, r1
 451 0008 ADF80230 		strh	r3, [sp, #2]	@ movhi
 177:/usr/src/chibiostest/os/hal/src/gpt.c **** 
 178:/usr/src/chibiostest/os/hal/src/gpt.c ****   chDbgCheckClassI();
 452              		.loc 1 178 0
 453 000c FFF7FEFF 		bl	chDbgCheckClassI
 179:/usr/src/chibiostest/os/hal/src/gpt.c ****   chDbgCheck(gptp != NULL, "gptStartOneShotI");
 454              		.loc 1 179 0
 455 0010 019B     		ldr	r3, [sp, #4]
 456 0012 002B     		cmp	r3, #0
 457 0014 02D1     		bne	.L22
 458              		.loc 1 179 0 is_stmt 0 discriminator 1
 459 0016 0B48     		ldr	r0, .L24
 460 0018 FFF7FEFF 		bl	chDbgPanic
 461              	.L22:
 180:/usr/src/chibiostest/os/hal/src/gpt.c ****   chDbgAssert(gptp->state == GPT_READY,
 462              		.loc 1 180 0 is_stmt 1
 463 001c 019B     		ldr	r3, [sp, #4]
 464 001e 1B78     		ldrb	r3, [r3]	@ zero_extendqisi2
 465 0020 022B     		cmp	r3, #2
 466 0022 02D0     		beq	.L23
 467              		.loc 1 180 0 is_stmt 0 discriminator 1
 468 0024 0848     		ldr	r0, .L24+4
 469 0026 FFF7FEFF 		bl	chDbgPanic
 470              	.L23:
 181:/usr/src/chibiostest/os/hal/src/gpt.c ****               "gptStartOneShotI(), #1", "invalid state");
 182:/usr/src/chibiostest/os/hal/src/gpt.c **** 
 183:/usr/src/chibiostest/os/hal/src/gpt.c ****   gptp->state = GPT_ONESHOT;
 471              		.loc 1 183 0 is_stmt 1
 472 002a 019B     		ldr	r3, [sp, #4]
 473 002c 0422     		movs	r2, #4
 474 002e 1A70     		strb	r2, [r3]
 184:/usr/src/chibiostest/os/hal/src/gpt.c ****   gpt_lld_start_timer(gptp, interval);
 475              		.loc 1 184 0
 476 0030 BDF80230 		ldrh	r3, [sp, #2]
 477 0034 0198     		ldr	r0, [sp, #4]
 478 0036 1946     		mov	r1, r3
 479 0038 FFF7FEFF 		bl	gpt_lld_start_timer
 185:/usr/src/chibiostest/os/hal/src/gpt.c **** }
 480              		.loc 1 185 0
 481 003c 03B0     		add	sp, sp, #12
 482              		@ sp needed
 483 003e 5DF804FB 		ldr	pc, [sp], #4
 484              	.L25:
 485 0042 00BF     		.align	2
 486              	.L24:
 487 0044 6C000000 		.word	.LC6
 488 0048 84000000 		.word	.LC7
 489              		.cfi_endproc
 490              	.LFE125:
 492 004c AFF30080 		.section	.text.gptStopTimer,"ax",%progbits
 493              		.align	2
 494              		.p2align 4,,15
 495              		.global	gptStopTimer
 496              		.thumb
 497              		.thumb_func
 499              	gptStopTimer:
 500              	.LFB126:
 186:/usr/src/chibiostest/os/hal/src/gpt.c **** 
 187:/usr/src/chibiostest/os/hal/src/gpt.c **** /**
 188:/usr/src/chibiostest/os/hal/src/gpt.c ****  * @brief   Stops the timer.
 189:/usr/src/chibiostest/os/hal/src/gpt.c ****  *
 190:/usr/src/chibiostest/os/hal/src/gpt.c ****  * @param[in] gptp      pointer to the @p GPTDriver object
 191:/usr/src/chibiostest/os/hal/src/gpt.c ****  *
 192:/usr/src/chibiostest/os/hal/src/gpt.c ****  * @api
 193:/usr/src/chibiostest/os/hal/src/gpt.c ****  */
 194:/usr/src/chibiostest/os/hal/src/gpt.c **** void gptStopTimer(GPTDriver *gptp) {
 501              		.loc 1 194 0
 502              		.cfi_startproc
 503              		@ args = 0, pretend = 0, frame = 8
 504              		@ frame_needed = 0, uses_anonymous_args = 0
 505 0000 00B5     		push	{lr}
 506              		.cfi_def_cfa_offset 4
 507              		.cfi_offset 14, -4
 508 0002 83B0     		sub	sp, sp, #12
 509              		.cfi_def_cfa_offset 16
 510 0004 0190     		str	r0, [sp, #4]
 511              	.LBB10:
 195:/usr/src/chibiostest/os/hal/src/gpt.c **** 
 196:/usr/src/chibiostest/os/hal/src/gpt.c ****   chSysLock();
 512              		.loc 1 196 0
 513 0006 2023     		movs	r3, #32
 514              	@ 196 "/usr/src/chibiostest/os/hal/src/gpt.c" 1
 515 0008 83F31188 		msr     BASEPRI, r3
 516              	@ 0 "" 2
 517              		.thumb
 518              	.LBE10:
 519 000c FFF7FEFF 		bl	dbg_check_lock
 197:/usr/src/chibiostest/os/hal/src/gpt.c ****   gptStopTimerI(gptp);
 520              		.loc 1 197 0
 521 0010 0198     		ldr	r0, [sp, #4]
 522 0012 FFF7FEFF 		bl	gptStopTimerI
 198:/usr/src/chibiostest/os/hal/src/gpt.c ****   chSysUnlock();
 523              		.loc 1 198 0
 524 0016 FFF7FEFF 		bl	dbg_check_unlock
 525              	.LBB11:
 526 001a 0023     		movs	r3, #0
 527              	@ 198 "/usr/src/chibiostest/os/hal/src/gpt.c" 1
 528 001c 83F31188 		msr     BASEPRI, r3
 529              	@ 0 "" 2
 530              		.thumb
 531              	.LBE11:
 199:/usr/src/chibiostest/os/hal/src/gpt.c **** }
 532              		.loc 1 199 0
 533 0020 03B0     		add	sp, sp, #12
 534              		@ sp needed
 535 0022 5DF804FB 		ldr	pc, [sp], #4
 536              		.cfi_endproc
 537              	.LFE126:
 539 0026 00BFAFF3 		.section	.rodata
 539      0080AFF3 
 539      0080
 540 009b 00       		.align	2
 541              	.LC8:
 542 009c 22677074 		.ascii	"\"gptStopTimerI\"()\000"
 542      53746F70 
 542      54696D65 
 542      72492228 
 542      2900
 543 00ae 0000     		.align	2
 544              	.LC9:
 545 00b0 67707453 		.ascii	"gptStopTimerI(), #1\000"
 545      746F7054 
 545      696D6572 
 545      4928292C 
 545      20233100 
 546              		.section	.text.gptStopTimerI,"ax",%progbits
 547              		.align	2
 548              		.p2align 4,,15
 549              		.global	gptStopTimerI
 550              		.thumb
 551              		.thumb_func
 553              	gptStopTimerI:
 554              	.LFB127:
 200:/usr/src/chibiostest/os/hal/src/gpt.c **** 
 201:/usr/src/chibiostest/os/hal/src/gpt.c **** /**
 202:/usr/src/chibiostest/os/hal/src/gpt.c ****  * @brief   Stops the timer.
 203:/usr/src/chibiostest/os/hal/src/gpt.c ****  *
 204:/usr/src/chibiostest/os/hal/src/gpt.c ****  * @param[in] gptp      pointer to the @p GPTDriver object
 205:/usr/src/chibiostest/os/hal/src/gpt.c ****  *
 206:/usr/src/chibiostest/os/hal/src/gpt.c ****  * @api
 207:/usr/src/chibiostest/os/hal/src/gpt.c ****  */
 208:/usr/src/chibiostest/os/hal/src/gpt.c **** void gptStopTimerI(GPTDriver *gptp) {
 555              		.loc 1 208 0
 556              		.cfi_startproc
 557              		@ args = 0, pretend = 0, frame = 8
 558              		@ frame_needed = 0, uses_anonymous_args = 0
 559 0000 00B5     		push	{lr}
 560              		.cfi_def_cfa_offset 4
 561              		.cfi_offset 14, -4
 562 0002 83B0     		sub	sp, sp, #12
 563              		.cfi_def_cfa_offset 16
 564 0004 0190     		str	r0, [sp, #4]
 209:/usr/src/chibiostest/os/hal/src/gpt.c **** 
 210:/usr/src/chibiostest/os/hal/src/gpt.c ****   chDbgCheckClassI();
 565              		.loc 1 210 0
 566 0006 FFF7FEFF 		bl	chDbgCheckClassI
 211:/usr/src/chibiostest/os/hal/src/gpt.c ****   chDbgCheck(gptp != NULL, "gptStopTimerI");
 567              		.loc 1 211 0
 568 000a 019B     		ldr	r3, [sp, #4]
 569 000c 002B     		cmp	r3, #0
 570 000e 02D1     		bne	.L28
 571              		.loc 1 211 0 is_stmt 0 discriminator 1
 572 0010 0D48     		ldr	r0, .L30
 573 0012 FFF7FEFF 		bl	chDbgPanic
 574              	.L28:
 212:/usr/src/chibiostest/os/hal/src/gpt.c ****   chDbgAssert((gptp->state == GPT_READY) || (gptp->state == GPT_CONTINUOUS) ||
 575              		.loc 1 212 0 is_stmt 1
 576 0016 019B     		ldr	r3, [sp, #4]
 577 0018 1B78     		ldrb	r3, [r3]	@ zero_extendqisi2
 578 001a 022B     		cmp	r3, #2
 579 001c 0AD0     		beq	.L29
 580              		.loc 1 212 0 is_stmt 0 discriminator 1
 581 001e 019B     		ldr	r3, [sp, #4]
 582 0020 1B78     		ldrb	r3, [r3]	@ zero_extendqisi2
 583 0022 032B     		cmp	r3, #3
 584 0024 06D0     		beq	.L29
 585 0026 019B     		ldr	r3, [sp, #4]
 586 0028 1B78     		ldrb	r3, [r3]	@ zero_extendqisi2
 587 002a 042B     		cmp	r3, #4
 588 002c 02D0     		beq	.L29
 589 002e 0748     		ldr	r0, .L30+4
 590 0030 FFF7FEFF 		bl	chDbgPanic
 591              	.L29:
 213:/usr/src/chibiostest/os/hal/src/gpt.c ****               (gptp->state == GPT_ONESHOT),
 214:/usr/src/chibiostest/os/hal/src/gpt.c ****               "gptStopTimerI(), #1", "invalid state");
 215:/usr/src/chibiostest/os/hal/src/gpt.c **** 
 216:/usr/src/chibiostest/os/hal/src/gpt.c ****   gptp->state = GPT_READY;
 592              		.loc 1 216 0 is_stmt 1
 593 0034 019B     		ldr	r3, [sp, #4]
 594 0036 0222     		movs	r2, #2
 595 0038 1A70     		strb	r2, [r3]
 217:/usr/src/chibiostest/os/hal/src/gpt.c ****   gpt_lld_stop_timer(gptp);
 596              		.loc 1 217 0
 597 003a 0198     		ldr	r0, [sp, #4]
 598 003c FFF7FEFF 		bl	gpt_lld_stop_timer
 218:/usr/src/chibiostest/os/hal/src/gpt.c **** }
 599              		.loc 1 218 0
 600 0040 03B0     		add	sp, sp, #12
 601              		@ sp needed
 602 0042 5DF804FB 		ldr	pc, [sp], #4
 603              	.L31:
 604 0046 00BF     		.align	2
 605              	.L30:
 606 0048 9C000000 		.word	.LC8
 607 004c B0000000 		.word	.LC9
 608              		.cfi_endproc
 609              	.LFE127:
 611              		.section	.rodata
 612              		.align	2
 613              	.LC10:
 614 00c4 67707450 		.ascii	"gptPolledDelay(), #1\000"
 614      6F6C6C65 
 614      6444656C 
 614      61792829 
 614      2C202331 
 615 00d9 000000   		.section	.text.gptPolledDelay,"ax",%progbits
 616              		.align	2
 617              		.p2align 4,,15
 618              		.global	gptPolledDelay
 619              		.thumb
 620              		.thumb_func
 622              	gptPolledDelay:
 623              	.LFB128:
 219:/usr/src/chibiostest/os/hal/src/gpt.c **** 
 220:/usr/src/chibiostest/os/hal/src/gpt.c **** /**
 221:/usr/src/chibiostest/os/hal/src/gpt.c ****  * @brief   Starts the timer in one shot mode and waits for completion.
 222:/usr/src/chibiostest/os/hal/src/gpt.c ****  * @details This function specifically polls the timer waiting for completion
 223:/usr/src/chibiostest/os/hal/src/gpt.c ****  *          in order to not have extra delays caused by interrupt servicing,
 224:/usr/src/chibiostest/os/hal/src/gpt.c ****  *          this function is only recommended for short delays.
 225:/usr/src/chibiostest/os/hal/src/gpt.c ****  * @note    The configured callback is not invoked when using this function.
 226:/usr/src/chibiostest/os/hal/src/gpt.c ****  *
 227:/usr/src/chibiostest/os/hal/src/gpt.c ****  * @param[in] gptp      pointer to the @p GPTDriver object
 228:/usr/src/chibiostest/os/hal/src/gpt.c ****  * @param[in] interval  time interval in ticks
 229:/usr/src/chibiostest/os/hal/src/gpt.c ****  *
 230:/usr/src/chibiostest/os/hal/src/gpt.c ****  * @api
 231:/usr/src/chibiostest/os/hal/src/gpt.c ****  */
 232:/usr/src/chibiostest/os/hal/src/gpt.c **** void gptPolledDelay(GPTDriver *gptp, gptcnt_t interval) {
 624              		.loc 1 232 0
 625              		.cfi_startproc
 626              		@ args = 0, pretend = 0, frame = 8
 627              		@ frame_needed = 0, uses_anonymous_args = 0
 628 0000 00B5     		push	{lr}
 629              		.cfi_def_cfa_offset 4
 630              		.cfi_offset 14, -4
 631 0002 83B0     		sub	sp, sp, #12
 632              		.cfi_def_cfa_offset 16
 633 0004 0190     		str	r0, [sp, #4]
 634 0006 0B46     		mov	r3, r1
 635 0008 ADF80230 		strh	r3, [sp, #2]	@ movhi
 233:/usr/src/chibiostest/os/hal/src/gpt.c **** 
 234:/usr/src/chibiostest/os/hal/src/gpt.c ****   chDbgAssert(gptp->state == GPT_READY,
 636              		.loc 1 234 0
 637 000c 019B     		ldr	r3, [sp, #4]
 638 000e 1B78     		ldrb	r3, [r3]	@ zero_extendqisi2
 639 0010 022B     		cmp	r3, #2
 640 0012 02D0     		beq	.L33
 641              		.loc 1 234 0 is_stmt 0 discriminator 1
 642 0014 0848     		ldr	r0, .L34
 643 0016 FFF7FEFF 		bl	chDbgPanic
 644              	.L33:
 235:/usr/src/chibiostest/os/hal/src/gpt.c ****               "gptPolledDelay(), #1", "invalid state");
 236:/usr/src/chibiostest/os/hal/src/gpt.c **** 
 237:/usr/src/chibiostest/os/hal/src/gpt.c ****   gptp->state = GPT_ONESHOT;
 645              		.loc 1 237 0 is_stmt 1
 646 001a 019B     		ldr	r3, [sp, #4]
 647 001c 0422     		movs	r2, #4
 648 001e 1A70     		strb	r2, [r3]
 238:/usr/src/chibiostest/os/hal/src/gpt.c ****   gpt_lld_polled_delay(gptp, interval);
 649              		.loc 1 238 0
 650 0020 BDF80230 		ldrh	r3, [sp, #2]
 651 0024 0198     		ldr	r0, [sp, #4]
 652 0026 1946     		mov	r1, r3
 653 0028 FFF7FEFF 		bl	gpt_lld_polled_delay
 239:/usr/src/chibiostest/os/hal/src/gpt.c ****   gptp->state = GPT_READY;
 654              		.loc 1 239 0
 655 002c 019B     		ldr	r3, [sp, #4]
 656 002e 0222     		movs	r2, #2
 657 0030 1A70     		strb	r2, [r3]
 240:/usr/src/chibiostest/os/hal/src/gpt.c **** }
 658              		.loc 1 240 0
 659 0032 03B0     		add	sp, sp, #12
 660              		@ sp needed
 661 0034 5DF804FB 		ldr	pc, [sp], #4
 662              	.L35:
 663              		.align	2
 664              	.L34:
 665 0038 C4000000 		.word	.LC10
 666              		.cfi_endproc
 667              	.LFE128:
 669 003c AFF30080 		.text
 670              	.Letext0:
 671              		.file 2 "/usr/include/newlib/machine/_default_types.h"
 672              		.file 3 "/usr/include/newlib/stdint.h"
 673              		.file 4 "/usr/src/chibiostest/os/hal/platforms/STM32/stm32.h"
 674              		.file 5 "/usr/src/chibiostest/os/hal/include/gpt.h"
 675              		.file 6 "/usr/src/chibiostest/os/hal/platforms/STM32/gpt_lld.h"
 676              		.file 7 "/usr/src/chibiostest/os/ports/common/ARMCMx/CMSIS/include/core_cm4.h"