   1              		.syntax unified
   2              		.cpu cortex-m4
   3              		.eabi_attribute 27, 3
   4              		.fpu fpv4-sp-d16
   5              		.eabi_attribute 20, 1
   6              		.eabi_attribute 21, 1
   7              		.eabi_attribute 23, 3
   8              		.eabi_attribute 24, 1
   9              		.eabi_attribute 25, 1
  10              		.eabi_attribute 26, 1
  11              		.eabi_attribute 30, 6
  12              		.eabi_attribute 34, 1
  13              		.eabi_attribute 18, 4
  14              		.thumb
  15              		.file	"hal.c"
  16              		.text
  17              	.Ltext0:
  18              		.cfi_sections	.debug_frame
  19              		.section	.text.halInit,"ax",%progbits
  20              		.align	2
  21              		.p2align 4,,15
  22              		.global	halInit
  23              		.thumb
  24              		.thumb_func
  26              	halInit:
  27              	.LFB118:
  28              		.file 1 "/usr/src/chibiostest/os/hal/src/hal.c"
   1:/usr/src/chibiostest/os/hal/src/hal.c **** /*
   2:/usr/src/chibiostest/os/hal/src/hal.c ****     ChibiOS/RT - Copyright (C) 2006,2007,2008,2009,2010,
   3:/usr/src/chibiostest/os/hal/src/hal.c ****                  2011,2012 Giovanni Di Sirio.
   4:/usr/src/chibiostest/os/hal/src/hal.c **** 
   5:/usr/src/chibiostest/os/hal/src/hal.c ****     This file is part of ChibiOS/RT.
   6:/usr/src/chibiostest/os/hal/src/hal.c **** 
   7:/usr/src/chibiostest/os/hal/src/hal.c ****     ChibiOS/RT is free software; you can redistribute it and/or modify
   8:/usr/src/chibiostest/os/hal/src/hal.c ****     it under the terms of the GNU General Public License as published by
   9:/usr/src/chibiostest/os/hal/src/hal.c ****     the Free Software Foundation; either version 3 of the License, or
  10:/usr/src/chibiostest/os/hal/src/hal.c ****     (at your option) any later version.
  11:/usr/src/chibiostest/os/hal/src/hal.c **** 
  12:/usr/src/chibiostest/os/hal/src/hal.c ****     ChibiOS/RT is distributed in the hope that it will be useful,
  13:/usr/src/chibiostest/os/hal/src/hal.c ****     but WITHOUT ANY WARRANTY; without even the implied warranty of
  14:/usr/src/chibiostest/os/hal/src/hal.c ****     MERCHANTABILITY or FITNESS FOR A PARTICULAR PURPOSE.  See the
  15:/usr/src/chibiostest/os/hal/src/hal.c ****     GNU General Public License for more details.
  16:/usr/src/chibiostest/os/hal/src/hal.c **** 
  17:/usr/src/chibiostest/os/hal/src/hal.c ****     You should have received a copy of the GNU General Public License
  18:/usr/src/chibiostest/os/hal/src/hal.c ****     along with this program.  If not, see <http://www.gnu.org/licenses/>.
  19:/usr/src/chibiostest/os/hal/src/hal.c **** */
  20:/usr/src/chibiostest/os/hal/src/hal.c **** 
  21:/usr/src/chibiostest/os/hal/src/hal.c **** /**
  22:/usr/src/chibiostest/os/hal/src/hal.c ****  * @file    hal.c
  23:/usr/src/chibiostest/os/hal/src/hal.c ****  * @brief   HAL subsystem code.
  24:/usr/src/chibiostest/os/hal/src/hal.c ****  *
  25:/usr/src/chibiostest/os/hal/src/hal.c ****  * @addtogroup HAL
  26:/usr/src/chibiostest/os/hal/src/hal.c ****  * @{
  27:/usr/src/chibiostest/os/hal/src/hal.c ****  */
  28:/usr/src/chibiostest/os/hal/src/hal.c **** 
  29:/usr/src/chibiostest/os/hal/src/hal.c **** #include "ch.h"
  30:/usr/src/chibiostest/os/hal/src/hal.c **** #include "hal.h"
  31:/usr/src/chibiostest/os/hal/src/hal.c **** 
  32:/usr/src/chibiostest/os/hal/src/hal.c **** /*===========================================================================*/
  33:/usr/src/chibiostest/os/hal/src/hal.c **** /* Driver local definitions.                                                 */
  34:/usr/src/chibiostest/os/hal/src/hal.c **** /*===========================================================================*/
  35:/usr/src/chibiostest/os/hal/src/hal.c **** 
  36:/usr/src/chibiostest/os/hal/src/hal.c **** /*===========================================================================*/
  37:/usr/src/chibiostest/os/hal/src/hal.c **** /* Driver exported variables.                                                */
  38:/usr/src/chibiostest/os/hal/src/hal.c **** /*===========================================================================*/
  39:/usr/src/chibiostest/os/hal/src/hal.c **** 
  40:/usr/src/chibiostest/os/hal/src/hal.c **** /*===========================================================================*/
  41:/usr/src/chibiostest/os/hal/src/hal.c **** /* Driver local variables.                                                   */
  42:/usr/src/chibiostest/os/hal/src/hal.c **** /*===========================================================================*/
  43:/usr/src/chibiostest/os/hal/src/hal.c **** 
  44:/usr/src/chibiostest/os/hal/src/hal.c **** /*===========================================================================*/
  45:/usr/src/chibiostest/os/hal/src/hal.c **** /* Driver local functions.                                                   */
  46:/usr/src/chibiostest/os/hal/src/hal.c **** /*===========================================================================*/
  47:/usr/src/chibiostest/os/hal/src/hal.c **** 
  48:/usr/src/chibiostest/os/hal/src/hal.c **** /*===========================================================================*/
  49:/usr/src/chibiostest/os/hal/src/hal.c **** /* Driver exported functions.                                                */
  50:/usr/src/chibiostest/os/hal/src/hal.c **** /*===========================================================================*/
  51:/usr/src/chibiostest/os/hal/src/hal.c **** 
  52:/usr/src/chibiostest/os/hal/src/hal.c **** /**
  53:/usr/src/chibiostest/os/hal/src/hal.c ****  * @brief   HAL initialization.
  54:/usr/src/chibiostest/os/hal/src/hal.c ****  * @details This function invokes the low level initialization code then
  55:/usr/src/chibiostest/os/hal/src/hal.c ****  *          initializes all the drivers enabled in the HAL. Finally the
  56:/usr/src/chibiostest/os/hal/src/hal.c ****  *          board-specific initialization is performed by invoking
  57:/usr/src/chibiostest/os/hal/src/hal.c ****  *          @p boardInit() (usually defined in @p board.c).
  58:/usr/src/chibiostest/os/hal/src/hal.c ****  *
  59:/usr/src/chibiostest/os/hal/src/hal.c ****  * @init
  60:/usr/src/chibiostest/os/hal/src/hal.c ****  */
  61:/usr/src/chibiostest/os/hal/src/hal.c **** void halInit(void) {
  29              		.loc 1 61 0
  30              		.cfi_startproc
  31              		@ args = 0, pretend = 0, frame = 0
  32              		@ frame_needed = 0, uses_anonymous_args = 0
  33 0000 08B5     		push	{r3, lr}
  34              		.cfi_def_cfa_offset 8
  35              		.cfi_offset 3, -8
  36              		.cfi_offset 14, -4
  62:/usr/src/chibiostest/os/hal/src/hal.c **** 
  63:/usr/src/chibiostest/os/hal/src/hal.c ****   hal_lld_init();
  37              		.loc 1 63 0
  38 0002 FFF7FEFF 		bl	hal_lld_init
  64:/usr/src/chibiostest/os/hal/src/hal.c **** 
  65:/usr/src/chibiostest/os/hal/src/hal.c **** #if HAL_USE_TM || defined(__DOXYGEN__)
  66:/usr/src/chibiostest/os/hal/src/hal.c ****   tmInit();
  39              		.loc 1 66 0
  40 0006 FFF7FEFF 		bl	tmInit
  67:/usr/src/chibiostest/os/hal/src/hal.c **** #endif
  68:/usr/src/chibiostest/os/hal/src/hal.c **** #if HAL_USE_PAL || defined(__DOXYGEN__)
  69:/usr/src/chibiostest/os/hal/src/hal.c ****   palInit(&pal_default_config);
  41              		.loc 1 69 0
  42 000a 0648     		ldr	r0, .L2
  43 000c FFF7FEFF 		bl	_pal_lld_init
  70:/usr/src/chibiostest/os/hal/src/hal.c **** #endif
  71:/usr/src/chibiostest/os/hal/src/hal.c **** #if HAL_USE_ADC || defined(__DOXYGEN__)
  72:/usr/src/chibiostest/os/hal/src/hal.c ****   adcInit();
  73:/usr/src/chibiostest/os/hal/src/hal.c **** #endif
  74:/usr/src/chibiostest/os/hal/src/hal.c **** #if HAL_USE_CAN || defined(__DOXYGEN__)
  75:/usr/src/chibiostest/os/hal/src/hal.c ****   canInit();
  76:/usr/src/chibiostest/os/hal/src/hal.c **** #endif
  77:/usr/src/chibiostest/os/hal/src/hal.c **** #if HAL_USE_EXT || defined(__DOXYGEN__)
  78:/usr/src/chibiostest/os/hal/src/hal.c ****   extInit();
  79:/usr/src/chibiostest/os/hal/src/hal.c **** #endif
  80:/usr/src/chibiostest/os/hal/src/hal.c **** #if HAL_USE_GPT || defined(__DOXYGEN__)
  81:/usr/src/chibiostest/os/hal/src/hal.c ****   gptInit();
  44              		.loc 1 81 0
  45 0010 FFF7FEFF 		bl	gptInit
  82:/usr/src/chibiostest/os/hal/src/hal.c **** #endif
  83:/usr/src/chibiostest/os/hal/src/hal.c **** #if HAL_USE_I2C || defined(__DOXYGEN__)
  84:/usr/src/chibiostest/os/hal/src/hal.c ****   i2cInit();
  85:/usr/src/chibiostest/os/hal/src/hal.c **** #endif
  86:/usr/src/chibiostest/os/hal/src/hal.c **** #if HAL_USE_ICU || defined(__DOXYGEN__)
  87:/usr/src/chibiostest/os/hal/src/hal.c ****   icuInit();
  88:/usr/src/chibiostest/os/hal/src/hal.c **** #endif
  89:/usr/src/chibiostest/os/hal/src/hal.c **** #if HAL_USE_MAC || defined(__DOXYGEN__)
  90:/usr/src/chibiostest/os/hal/src/hal.c ****   macInit();
  91:/usr/src/chibiostest/os/hal/src/hal.c **** #endif
  92:/usr/src/chibiostest/os/hal/src/hal.c **** #if HAL_USE_PWM || defined(__DOXYGEN__)
  93:/usr/src/chibiostest/os/hal/src/hal.c ****   pwmInit();
  94:/usr/src/chibiostest/os/hal/src/hal.c **** #endif
  95:/usr/src/chibiostest/os/hal/src/hal.c **** #if HAL_USE_SERIAL || defined(__DOXYGEN__)
  96:/usr/src/chibiostest/os/hal/src/hal.c ****   sdInit();
  97:/usr/src/chibiostest/os/hal/src/hal.c **** #endif
  98:/usr/src/chibiostest/os/hal/src/hal.c **** #if HAL_USE_SDC || defined(__DOXYGEN__)
  99:/usr/src/chibiostest/os/hal/src/hal.c ****   sdcInit();
 100:/usr/src/chibiostest/os/hal/src/hal.c **** #endif
 101:/usr/src/chibiostest/os/hal/src/hal.c **** #if HAL_USE_SPI || defined(__DOXYGEN__)
 102:/usr/src/chibiostest/os/hal/src/hal.c ****   spiInit();
 103:/usr/src/chibiostest/os/hal/src/hal.c **** #endif
 104:/usr/src/chibiostest/os/hal/src/hal.c **** #if HAL_USE_UART || defined(__DOXYGEN__)
 105:/usr/src/chibiostest/os/hal/src/hal.c ****   uartInit();
 106:/usr/src/chibiostest/os/hal/src/hal.c **** #endif
 107:/usr/src/chibiostest/os/hal/src/hal.c **** #if HAL_USE_USB || defined(__DOXYGEN__)
 108:/usr/src/chibiostest/os/hal/src/hal.c ****   usbInit();
  46              		.loc 1 108 0
  47 0014 FFF7FEFF 		bl	usbInit
 109:/usr/src/chibiostest/os/hal/src/hal.c **** #endif
 110:/usr/src/chibiostest/os/hal/src/hal.c **** #if HAL_USE_MMC_SPI || defined(__DOXYGEN__)
 111:/usr/src/chibiostest/os/hal/src/hal.c ****   mmcInit();
 112:/usr/src/chibiostest/os/hal/src/hal.c **** #endif
 113:/usr/src/chibiostest/os/hal/src/hal.c **** #if HAL_USE_SERIAL_USB || defined(__DOXYGEN__)
 114:/usr/src/chibiostest/os/hal/src/hal.c ****   sduInit();
  48              		.loc 1 114 0
  49 0018 FFF7FEFF 		bl	sduInit
 115:/usr/src/chibiostest/os/hal/src/hal.c **** #endif
 116:/usr/src/chibiostest/os/hal/src/hal.c **** #if HAL_USE_RTC || defined(__DOXYGEN__)
 117:/usr/src/chibiostest/os/hal/src/hal.c ****   rtcInit();
 118:/usr/src/chibiostest/os/hal/src/hal.c **** #endif
 119:/usr/src/chibiostest/os/hal/src/hal.c ****   /* Board specific initialization.*/
 120:/usr/src/chibiostest/os/hal/src/hal.c ****   boardInit();
  50              		.loc 1 120 0
  51 001c FFF7FEFF 		bl	boardInit
 121:/usr/src/chibiostest/os/hal/src/hal.c **** }
  52              		.loc 1 121 0
  53 0020 08BD     		pop	{r3, pc}
  54              	.L3:
  55 0022 00BF     		.align	2
  56              	.L2:
  57 0024 00000000 		.word	pal_default_config
  58              		.cfi_endproc
  59              	.LFE118:
  61 0028 AFF30080 		.section	.text.halIsCounterWithin,"ax",%progbits
  61      AFF30080 
  62              		.align	2
  63              		.p2align 4,,15
  64              		.global	halIsCounterWithin
  65              		.thumb
  66              		.thumb_func
  68              	halIsCounterWithin:
  69              	.LFB119:
 122:/usr/src/chibiostest/os/hal/src/hal.c **** 
 123:/usr/src/chibiostest/os/hal/src/hal.c **** #if HAL_IMPLEMENTS_COUNTERS || defined(__DOXYGEN__)
 124:/usr/src/chibiostest/os/hal/src/hal.c **** /**
 125:/usr/src/chibiostest/os/hal/src/hal.c ****  * @brief   Realtime window test.
 126:/usr/src/chibiostest/os/hal/src/hal.c ****  * @details This function verifies if the current realtime counter value
 127:/usr/src/chibiostest/os/hal/src/hal.c ****  *          lies within the specified range or not. The test takes care
 128:/usr/src/chibiostest/os/hal/src/hal.c ****  *          of the realtime counter wrapping to zero on overflow.
 129:/usr/src/chibiostest/os/hal/src/hal.c ****  * @note    When start==end then the function returns always true because the
 130:/usr/src/chibiostest/os/hal/src/hal.c ****  *          whole time range is specified.
 131:/usr/src/chibiostest/os/hal/src/hal.c ****  * @note    This is an optional service that could not be implemented in
 132:/usr/src/chibiostest/os/hal/src/hal.c ****  *          all HAL implementations.
 133:/usr/src/chibiostest/os/hal/src/hal.c ****  * @note    This function can be called from any context.
 134:/usr/src/chibiostest/os/hal/src/hal.c ****  *
 135:/usr/src/chibiostest/os/hal/src/hal.c ****  * @par Example 1
 136:/usr/src/chibiostest/os/hal/src/hal.c ****  * Example of a guarded loop using the realtime counter. The loop implements
 137:/usr/src/chibiostest/os/hal/src/hal.c ****  * a timeout after one second.
 138:/usr/src/chibiostest/os/hal/src/hal.c ****  * @code
 139:/usr/src/chibiostest/os/hal/src/hal.c ****  *   halrtcnt_t start = halGetCounterValue();
 140:/usr/src/chibiostest/os/hal/src/hal.c ****  *   halrtcnt_t timeout  = start + S2RTT(1);
 141:/usr/src/chibiostest/os/hal/src/hal.c ****  *   while (my_condition) {
 142:/usr/src/chibiostest/os/hal/src/hal.c ****  *     if (!halIsCounterWithin(start, timeout)
 143:/usr/src/chibiostest/os/hal/src/hal.c ****  *       return TIMEOUT;
 144:/usr/src/chibiostest/os/hal/src/hal.c ****  *     // Do something.
 145:/usr/src/chibiostest/os/hal/src/hal.c ****  *   }
 146:/usr/src/chibiostest/os/hal/src/hal.c ****  *   // Continue.
 147:/usr/src/chibiostest/os/hal/src/hal.c ****  * @endcode
 148:/usr/src/chibiostest/os/hal/src/hal.c ****  *
 149:/usr/src/chibiostest/os/hal/src/hal.c ****  * @par Example 2
 150:/usr/src/chibiostest/os/hal/src/hal.c ****  * Example of a loop that lasts exactly 50 microseconds.
 151:/usr/src/chibiostest/os/hal/src/hal.c ****  * @code
 152:/usr/src/chibiostest/os/hal/src/hal.c ****  *   halrtcnt_t start = halGetCounterValue();
 153:/usr/src/chibiostest/os/hal/src/hal.c ****  *   halrtcnt_t timeout  = start + US2RTT(50);
 154:/usr/src/chibiostest/os/hal/src/hal.c ****  *   while (halIsCounterWithin(start, timeout)) {
 155:/usr/src/chibiostest/os/hal/src/hal.c ****  *     // Do something.
 156:/usr/src/chibiostest/os/hal/src/hal.c ****  *   }
 157:/usr/src/chibiostest/os/hal/src/hal.c ****  *   // Continue.
 158:/usr/src/chibiostest/os/hal/src/hal.c ****  * @endcode
 159:/usr/src/chibiostest/os/hal/src/hal.c ****  *
 160:/usr/src/chibiostest/os/hal/src/hal.c ****  * @param[in] start     the start of the time window (inclusive)
 161:/usr/src/chibiostest/os/hal/src/hal.c ****  * @param[in] end       the end of the time window (non inclusive)
 162:/usr/src/chibiostest/os/hal/src/hal.c ****  * @retval TRUE         current time within the specified time window.
 163:/usr/src/chibiostest/os/hal/src/hal.c ****  * @retval FALSE        current time not within the specified time window.
 164:/usr/src/chibiostest/os/hal/src/hal.c ****  *
 165:/usr/src/chibiostest/os/hal/src/hal.c ****  * @special
 166:/usr/src/chibiostest/os/hal/src/hal.c ****  */
 167:/usr/src/chibiostest/os/hal/src/hal.c **** bool_t halIsCounterWithin(halrtcnt_t start, halrtcnt_t end) {
  70              		.loc 1 167 0
  71              		.cfi_startproc
  72              		@ args = 0, pretend = 0, frame = 16
  73              		@ frame_needed = 0, uses_anonymous_args = 0
  74              		@ link register save eliminated.
  75 0000 84B0     		sub	sp, sp, #16
  76              		.cfi_def_cfa_offset 16
  77 0002 0190     		str	r0, [sp, #4]
  78 0004 0091     		str	r1, [sp]
 168:/usr/src/chibiostest/os/hal/src/hal.c ****   halrtcnt_t now = halGetCounterValue();
  79              		.loc 1 168 0
  80 0006 104B     		ldr	r3, .L13
  81 0008 5B68     		ldr	r3, [r3, #4]
  82 000a 0393     		str	r3, [sp, #12]
 169:/usr/src/chibiostest/os/hal/src/hal.c **** 
 170:/usr/src/chibiostest/os/hal/src/hal.c ****   return end > start ? (now >= start) && (now < end) :
  83              		.loc 1 170 0
  84 000c 009A     		ldr	r2, [sp]
  85 000e 019B     		ldr	r3, [sp, #4]
  86 0010 9A42     		cmp	r2, r3
  87 0012 0BD9     		bls	.L5
  88              		.loc 1 170 0 is_stmt 0 discriminator 1
  89 0014 039A     		ldr	r2, [sp, #12]
  90 0016 019B     		ldr	r3, [sp, #4]
  91 0018 9A42     		cmp	r2, r3
  92 001a 05D3     		bcc	.L6
  93              		.loc 1 170 0 discriminator 3
  94 001c 039A     		ldr	r2, [sp, #12]
  95 001e 009B     		ldr	r3, [sp]
  96 0020 9A42     		cmp	r2, r3
  97 0022 01D2     		bcs	.L6
  98              		.loc 1 170 0 discriminator 1
  99 0024 0123     		movs	r3, #1
 100 0026 00E0     		b	.L7
 101              	.L6:
 102              		.loc 1 170 0 discriminator 4
 103 0028 0023     		movs	r3, #0
 104              	.L7:
 105 002a 0AE0     		b	.L8
 106              	.L5:
 107              		.loc 1 170 0 discriminator 2
 108 002c 039A     		ldr	r2, [sp, #12]
 109 002e 019B     		ldr	r3, [sp, #4]
 110 0030 9A42     		cmp	r2, r3
 111 0032 03D2     		bcs	.L9
 171:/usr/src/chibiostest/os/hal/src/hal.c ****                        (now >= start) || (now < end);
 112              		.loc 1 171 0 is_stmt 1
 113 0034 039A     		ldr	r2, [sp, #12]
 114 0036 009B     		ldr	r3, [sp]
 115 0038 9A42     		cmp	r2, r3
 116 003a 01D2     		bcs	.L10
 117              	.L9:
 170:/usr/src/chibiostest/os/hal/src/hal.c ****                        (now >= start) || (now < end);
 118              		.loc 1 170 0 discriminator 6
 119 003c 0123     		movs	r3, #1
 120 003e 00E0     		b	.L8
 121              	.L10:
 170:/usr/src/chibiostest/os/hal/src/hal.c ****                        (now >= start) || (now < end);
 122              		.loc 1 170 0 is_stmt 0
 123 0040 0023     		movs	r3, #0
 124              	.L8:
 172:/usr/src/chibiostest/os/hal/src/hal.c **** }
 125              		.loc 1 172 0 is_stmt 1 discriminator 8
 126 0042 1846     		mov	r0, r3
 127 0044 04B0     		add	sp, sp, #16
 128              		@ sp needed
 129 0046 7047     		bx	lr
 130              	.L14:
 131              		.align	2
 132              	.L13:
 133 0048 001000E0 		.word	-536866816
 134              		.cfi_endproc
 135              	.LFE119:
 137 004c AFF30080 		.section	.text.halPolledDelay,"ax",%progbits
 138              		.align	2
 139              		.p2align 4,,15
 140              		.global	halPolledDelay
 141              		.thumb
 142              		.thumb_func
 144              	halPolledDelay:
 145              	.LFB120:
 173:/usr/src/chibiostest/os/hal/src/hal.c **** 
 174:/usr/src/chibiostest/os/hal/src/hal.c **** /**
 175:/usr/src/chibiostest/os/hal/src/hal.c ****  * @brief   Polled delay.
 176:/usr/src/chibiostest/os/hal/src/hal.c ****  * @note    The real delays is always few cycles in excess of the specified
 177:/usr/src/chibiostest/os/hal/src/hal.c ****  *          value.
 178:/usr/src/chibiostest/os/hal/src/hal.c ****  * @note    This is an optional service that could not be implemented in
 179:/usr/src/chibiostest/os/hal/src/hal.c ****  *          all HAL implementations.
 180:/usr/src/chibiostest/os/hal/src/hal.c ****  * @note    This function can be called from any context.
 181:/usr/src/chibiostest/os/hal/src/hal.c ****  *
 182:/usr/src/chibiostest/os/hal/src/hal.c ****  * @param[in] ticks     number of ticks
 183:/usr/src/chibiostest/os/hal/src/hal.c ****  *
 184:/usr/src/chibiostest/os/hal/src/hal.c ****  * @special
 185:/usr/src/chibiostest/os/hal/src/hal.c ****  */
 186:/usr/src/chibiostest/os/hal/src/hal.c **** void halPolledDelay(halrtcnt_t ticks) {
 146              		.loc 1 186 0
 147              		.cfi_startproc
 148              		@ args = 0, pretend = 0, frame = 16
 149              		@ frame_needed = 0, uses_anonymous_args = 0
 150 0000 00B5     		push	{lr}
 151              		.cfi_def_cfa_offset 4
 152              		.cfi_offset 14, -4
 153 0002 85B0     		sub	sp, sp, #20
 154              		.cfi_def_cfa_offset 24
 155 0004 0190     		str	r0, [sp, #4]
 187:/usr/src/chibiostest/os/hal/src/hal.c ****   halrtcnt_t start = halGetCounterValue();
 156              		.loc 1 187 0
 157 0006 094B     		ldr	r3, .L17
 158 0008 5B68     		ldr	r3, [r3, #4]
 159 000a 0393     		str	r3, [sp, #12]
 188:/usr/src/chibiostest/os/hal/src/hal.c ****   halrtcnt_t timeout  = start + (ticks);
 160              		.loc 1 188 0
 161 000c 039A     		ldr	r2, [sp, #12]
 162 000e 019B     		ldr	r3, [sp, #4]
 163 0010 1344     		add	r3, r3, r2
 164 0012 0293     		str	r3, [sp, #8]
 189:/usr/src/chibiostest/os/hal/src/hal.c ****   while (halIsCounterWithin(start, timeout))
 165              		.loc 1 189 0
 166 0014 00BF     		nop
 167              	.L16:
 168              		.loc 1 189 0 is_stmt 0 discriminator 1
 169 0016 0398     		ldr	r0, [sp, #12]
 170 0018 0299     		ldr	r1, [sp, #8]
 171 001a FFF7FEFF 		bl	halIsCounterWithin
 172 001e 0346     		mov	r3, r0
 173 0020 002B     		cmp	r3, #0
 174 0022 F8D1     		bne	.L16
 190:/usr/src/chibiostest/os/hal/src/hal.c ****     ;
 191:/usr/src/chibiostest/os/hal/src/hal.c **** }
 175              		.loc 1 191 0 is_stmt 1
 176 0024 05B0     		add	sp, sp, #20
 177              		@ sp needed
 178 0026 5DF804FB 		ldr	pc, [sp], #4
 179              	.L18:
 180 002a 00BF     		.align	2
 181              	.L17:
 182 002c 001000E0 		.word	-536866816
 183              		.cfi_endproc
 184              	.LFE120:
 186              		.text
 187              	.Letext0:
 188              		.file 2 "/usr/include/newlib/machine/_default_types.h"
 189              		.file 3 "/usr/include/newlib/stdint.h"
 190              		.file 4 "/usr/src/chibiostest/os/ports/GCC/ARMCMx/chtypes.h"
 191              		.file 5 "/usr/src/chibiostest/os/ports/common/ARMCMx/nvic.h"
 192              		.file 6 "/usr/src/chibiostest/os/hal/platforms/STM32F4xx/hal_lld.h"
 193              		.file 7 "/usr/src/chibiostest/os/hal/platforms/STM32/GPIOv2/pal_lld.h"
 194              		.file 8 "/usr/src/chibiostest/os/ports/common/ARMCMx/CMSIS/include/core_cm4.h"