   1              		.syntax unified
   2              		.cpu cortex-m4
   3              		.eabi_attribute 27, 3
   4              		.fpu fpv4-sp-d16
   5              		.eabi_attribute 20, 1
   6              		.eabi_attribute 21, 1
   7              		.eabi_attribute 23, 3
   8              		.eabi_attribute 24, 1
   9              		.eabi_attribute 25, 1
  10              		.eabi_attribute 26, 1
  11              		.eabi_attribute 30, 6
  12              		.eabi_attribute 34, 1
  13              		.eabi_attribute 18, 4
  14              		.thumb
  15              		.file	"tm.c"
  16              		.text
  17              	.Ltext0:
  18              		.cfi_sections	.debug_frame
  19              		.section	.bss.measurement_offset,"aw",%nobits
  20              		.align	2
  23              	measurement_offset:
  24 0000 00000000 		.space	4
  25              		.section	.text.tm_start,"ax",%progbits
  26              		.align	2
  27              		.p2align 4,,15
  28              		.thumb
  29              		.thumb_func
  31              	tm_start:
  32              	.LFB118:
  33              		.file 1 "/usr/src/chibiostest/os/hal/src/tm.c"
   1:/usr/src/chibiostest/os/hal/src/tm.c **** /*
   2:/usr/src/chibiostest/os/hal/src/tm.c ****     ChibiOS/RT - Copyright (C) 2006,2007,2008,2009,2010,
   3:/usr/src/chibiostest/os/hal/src/tm.c ****                  2011,2012 Giovanni Di Sirio.
   4:/usr/src/chibiostest/os/hal/src/tm.c **** 
   5:/usr/src/chibiostest/os/hal/src/tm.c ****     This file is part of ChibiOS/RT.
   6:/usr/src/chibiostest/os/hal/src/tm.c **** 
   7:/usr/src/chibiostest/os/hal/src/tm.c ****     ChibiOS/RT is free software; you can redistribute it and/or modify
   8:/usr/src/chibiostest/os/hal/src/tm.c ****     it under the terms of the GNU General Public License as published by
   9:/usr/src/chibiostest/os/hal/src/tm.c ****     the Free Software Foundation; either version 3 of the License, or
  10:/usr/src/chibiostest/os/hal/src/tm.c ****     (at your option) any later version.
  11:/usr/src/chibiostest/os/hal/src/tm.c **** 
  12:/usr/src/chibiostest/os/hal/src/tm.c ****     ChibiOS/RT is distributed in the hope that it will be useful,
  13:/usr/src/chibiostest/os/hal/src/tm.c ****     but WITHOUT ANY WARRANTY; without even the implied warranty of
  14:/usr/src/chibiostest/os/hal/src/tm.c ****     MERCHANTABILITY or FITNESS FOR A PARTICULAR PURPOSE.  See the
  15:/usr/src/chibiostest/os/hal/src/tm.c ****     GNU General Public License for more details.
  16:/usr/src/chibiostest/os/hal/src/tm.c **** 
  17:/usr/src/chibiostest/os/hal/src/tm.c ****     You should have received a copy of the GNU General Public License
  18:/usr/src/chibiostest/os/hal/src/tm.c ****     along with this program.  If not, see <http://www.gnu.org/licenses/>.
  19:/usr/src/chibiostest/os/hal/src/tm.c **** */
  20:/usr/src/chibiostest/os/hal/src/tm.c **** 
  21:/usr/src/chibiostest/os/hal/src/tm.c **** /**
  22:/usr/src/chibiostest/os/hal/src/tm.c ****  * @file    tm.c
  23:/usr/src/chibiostest/os/hal/src/tm.c ****  * @brief   Time Measurement driver code.
  24:/usr/src/chibiostest/os/hal/src/tm.c ****  *
  25:/usr/src/chibiostest/os/hal/src/tm.c ****  * @addtogroup TM
  26:/usr/src/chibiostest/os/hal/src/tm.c ****  * @{
  27:/usr/src/chibiostest/os/hal/src/tm.c ****  */
  28:/usr/src/chibiostest/os/hal/src/tm.c **** 
  29:/usr/src/chibiostest/os/hal/src/tm.c **** #include "ch.h"
  30:/usr/src/chibiostest/os/hal/src/tm.c **** #include "hal.h"
  31:/usr/src/chibiostest/os/hal/src/tm.c **** 
  32:/usr/src/chibiostest/os/hal/src/tm.c **** #if HAL_USE_TM || defined(__DOXYGEN__)
  33:/usr/src/chibiostest/os/hal/src/tm.c **** 
  34:/usr/src/chibiostest/os/hal/src/tm.c **** /*===========================================================================*/
  35:/usr/src/chibiostest/os/hal/src/tm.c **** /* Driver local definitions.                                                 */
  36:/usr/src/chibiostest/os/hal/src/tm.c **** /*===========================================================================*/
  37:/usr/src/chibiostest/os/hal/src/tm.c **** 
  38:/usr/src/chibiostest/os/hal/src/tm.c **** /*===========================================================================*/
  39:/usr/src/chibiostest/os/hal/src/tm.c **** /* Driver exported variables.                                                */
  40:/usr/src/chibiostest/os/hal/src/tm.c **** /*===========================================================================*/
  41:/usr/src/chibiostest/os/hal/src/tm.c **** 
  42:/usr/src/chibiostest/os/hal/src/tm.c **** /*===========================================================================*/
  43:/usr/src/chibiostest/os/hal/src/tm.c **** /* Driver local variables.                                                   */
  44:/usr/src/chibiostest/os/hal/src/tm.c **** /*===========================================================================*/
  45:/usr/src/chibiostest/os/hal/src/tm.c **** 
  46:/usr/src/chibiostest/os/hal/src/tm.c **** /**
  47:/usr/src/chibiostest/os/hal/src/tm.c ****  * @brief   Subsystem calibration value.
  48:/usr/src/chibiostest/os/hal/src/tm.c ****  */
  49:/usr/src/chibiostest/os/hal/src/tm.c **** static halrtcnt_t measurement_offset;
  50:/usr/src/chibiostest/os/hal/src/tm.c **** 
  51:/usr/src/chibiostest/os/hal/src/tm.c **** /*===========================================================================*/
  52:/usr/src/chibiostest/os/hal/src/tm.c **** /* Driver local functions.                                                   */
  53:/usr/src/chibiostest/os/hal/src/tm.c **** /*===========================================================================*/
  54:/usr/src/chibiostest/os/hal/src/tm.c **** 
  55:/usr/src/chibiostest/os/hal/src/tm.c **** /**
  56:/usr/src/chibiostest/os/hal/src/tm.c ****  * @brief   Starts a measurement.
  57:/usr/src/chibiostest/os/hal/src/tm.c ****  *
  58:/usr/src/chibiostest/os/hal/src/tm.c ****  * @param[in,out] tmp   pointer to a @p TimeMeasurement structure
  59:/usr/src/chibiostest/os/hal/src/tm.c ****  *
  60:/usr/src/chibiostest/os/hal/src/tm.c ****  * @notapi
  61:/usr/src/chibiostest/os/hal/src/tm.c ****  */
  62:/usr/src/chibiostest/os/hal/src/tm.c **** static void tm_start(TimeMeasurement *tmp) {
  34              		.loc 1 62 0
  35              		.cfi_startproc
  36              		@ args = 0, pretend = 0, frame = 8
  37              		@ frame_needed = 0, uses_anonymous_args = 0
  38              		@ link register save eliminated.
  39 0000 82B0     		sub	sp, sp, #8
  40              		.cfi_def_cfa_offset 8
  41 0002 0190     		str	r0, [sp, #4]
  63:/usr/src/chibiostest/os/hal/src/tm.c **** 
  64:/usr/src/chibiostest/os/hal/src/tm.c ****   tmp->last = halGetCounterValue();
  42              		.loc 1 64 0
  43 0004 024B     		ldr	r3, .L2
  44 0006 5A68     		ldr	r2, [r3, #4]
  45 0008 019B     		ldr	r3, [sp, #4]
  46 000a 9A60     		str	r2, [r3, #8]
  65:/usr/src/chibiostest/os/hal/src/tm.c **** }
  47              		.loc 1 65 0
  48 000c 02B0     		add	sp, sp, #8
  49              		@ sp needed
  50 000e 7047     		bx	lr
  51              	.L3:
  52              		.align	2
  53              	.L2:
  54 0010 001000E0 		.word	-536866816
  55              		.cfi_endproc
  56              	.LFE118:
  58 0014 AFF30080 		.section	.text.tm_stop,"ax",%progbits
  58      AFF30080 
  58      AFF30080 
  59              		.align	2
  60              		.p2align 4,,15
  61              		.thumb
  62              		.thumb_func
  64              	tm_stop:
  65              	.LFB119:
  66:/usr/src/chibiostest/os/hal/src/tm.c **** 
  67:/usr/src/chibiostest/os/hal/src/tm.c **** /**
  68:/usr/src/chibiostest/os/hal/src/tm.c ****  * @brief   Stops a measurement.
  69:/usr/src/chibiostest/os/hal/src/tm.c ****  *
  70:/usr/src/chibiostest/os/hal/src/tm.c ****  * @param[in,out] tmp   pointer to a @p TimeMeasurement structure
  71:/usr/src/chibiostest/os/hal/src/tm.c ****  *
  72:/usr/src/chibiostest/os/hal/src/tm.c ****  * @notapi
  73:/usr/src/chibiostest/os/hal/src/tm.c ****  */
  74:/usr/src/chibiostest/os/hal/src/tm.c **** static void tm_stop(TimeMeasurement *tmp) {
  66              		.loc 1 74 0
  67              		.cfi_startproc
  68              		@ args = 0, pretend = 0, frame = 16
  69              		@ frame_needed = 0, uses_anonymous_args = 0
  70              		@ link register save eliminated.
  71 0000 84B0     		sub	sp, sp, #16
  72              		.cfi_def_cfa_offset 16
  73 0002 0190     		str	r0, [sp, #4]
  75:/usr/src/chibiostest/os/hal/src/tm.c **** 
  76:/usr/src/chibiostest/os/hal/src/tm.c ****   halrtcnt_t now = halGetCounterValue();
  74              		.loc 1 76 0
  75 0004 114B     		ldr	r3, .L7
  76 0006 5B68     		ldr	r3, [r3, #4]
  77 0008 0393     		str	r3, [sp, #12]
  77:/usr/src/chibiostest/os/hal/src/tm.c ****   tmp->last = now - tmp->last - measurement_offset;
  78              		.loc 1 77 0
  79 000a 019B     		ldr	r3, [sp, #4]
  80 000c 9B68     		ldr	r3, [r3, #8]
  81 000e 039A     		ldr	r2, [sp, #12]
  82 0010 D21A     		subs	r2, r2, r3
  83 0012 0F4B     		ldr	r3, .L7+4
  84 0014 1B68     		ldr	r3, [r3]
  85 0016 D21A     		subs	r2, r2, r3
  86 0018 019B     		ldr	r3, [sp, #4]
  87 001a 9A60     		str	r2, [r3, #8]
  78:/usr/src/chibiostest/os/hal/src/tm.c ****   if (tmp->last > tmp->worst)
  88              		.loc 1 78 0
  89 001c 019B     		ldr	r3, [sp, #4]
  90 001e 9A68     		ldr	r2, [r3, #8]
  91 0020 019B     		ldr	r3, [sp, #4]
  92 0022 DB68     		ldr	r3, [r3, #12]
  93 0024 9A42     		cmp	r2, r3
  94 0026 04D9     		bls	.L5
  79:/usr/src/chibiostest/os/hal/src/tm.c ****       tmp->worst = tmp->last;
  95              		.loc 1 79 0
  96 0028 019B     		ldr	r3, [sp, #4]
  97 002a 9A68     		ldr	r2, [r3, #8]
  98 002c 019B     		ldr	r3, [sp, #4]
  99 002e DA60     		str	r2, [r3, #12]
 100 0030 09E0     		b	.L4
 101              	.L5:
  80:/usr/src/chibiostest/os/hal/src/tm.c ****   else if (tmp->last < tmp->best)
 102              		.loc 1 80 0
 103 0032 019B     		ldr	r3, [sp, #4]
 104 0034 9A68     		ldr	r2, [r3, #8]
 105 0036 019B     		ldr	r3, [sp, #4]
 106 0038 1B69     		ldr	r3, [r3, #16]
 107 003a 9A42     		cmp	r2, r3
 108 003c 03D2     		bcs	.L4
  81:/usr/src/chibiostest/os/hal/src/tm.c ****       tmp->best = tmp->last;
 109              		.loc 1 81 0
 110 003e 019B     		ldr	r3, [sp, #4]
 111 0040 9A68     		ldr	r2, [r3, #8]
 112 0042 019B     		ldr	r3, [sp, #4]
 113 0044 1A61     		str	r2, [r3, #16]
 114              	.L4:
  82:/usr/src/chibiostest/os/hal/src/tm.c **** }
 115              		.loc 1 82 0
 116 0046 04B0     		add	sp, sp, #16
 117              		@ sp needed
 118 0048 7047     		bx	lr
 119              	.L8:
 120 004a 00BF     		.align	2
 121              	.L7:
 122 004c 001000E0 		.word	-536866816
 123 0050 00000000 		.word	measurement_offset
 124              		.cfi_endproc
 125              	.LFE119:
 127 0054 AFF30080 		.section	.text.tmInit,"ax",%progbits
 127      AFF30080 
 127      AFF30080 
 128              		.align	2
 129              		.p2align 4,,15
 130              		.global	tmInit
 131              		.thumb
 132              		.thumb_func
 134              	tmInit:
 135              	.LFB120:
  83:/usr/src/chibiostest/os/hal/src/tm.c **** 
  84:/usr/src/chibiostest/os/hal/src/tm.c **** /*===========================================================================*/
  85:/usr/src/chibiostest/os/hal/src/tm.c **** /* Driver interrupt handlers.                                                */
  86:/usr/src/chibiostest/os/hal/src/tm.c **** /*===========================================================================*/
  87:/usr/src/chibiostest/os/hal/src/tm.c **** 
  88:/usr/src/chibiostest/os/hal/src/tm.c **** /*===========================================================================*/
  89:/usr/src/chibiostest/os/hal/src/tm.c **** /* Driver exported functions.                                                */
  90:/usr/src/chibiostest/os/hal/src/tm.c **** /*===========================================================================*/
  91:/usr/src/chibiostest/os/hal/src/tm.c **** 
  92:/usr/src/chibiostest/os/hal/src/tm.c **** /**
  93:/usr/src/chibiostest/os/hal/src/tm.c ****  * @brief   Initializes the Time Measurement unit.
  94:/usr/src/chibiostest/os/hal/src/tm.c ****  *
  95:/usr/src/chibiostest/os/hal/src/tm.c ****  * @init
  96:/usr/src/chibiostest/os/hal/src/tm.c ****  */
  97:/usr/src/chibiostest/os/hal/src/tm.c **** void tmInit(void) {
 136              		.loc 1 97 0
 137              		.cfi_startproc
 138              		@ args = 0, pretend = 0, frame = 24
 139              		@ frame_needed = 0, uses_anonymous_args = 0
 140 0000 00B5     		push	{lr}
 141              		.cfi_def_cfa_offset 4
 142              		.cfi_offset 14, -4
 143 0002 87B0     		sub	sp, sp, #28
 144              		.cfi_def_cfa_offset 32
  98:/usr/src/chibiostest/os/hal/src/tm.c ****   TimeMeasurement tm;
  99:/usr/src/chibiostest/os/hal/src/tm.c **** 
 100:/usr/src/chibiostest/os/hal/src/tm.c ****   /* Time Measurement subsystem calibration, it does a null measurement
 101:/usr/src/chibiostest/os/hal/src/tm.c ****      and calculates the call overhead which is subtracted to real
 102:/usr/src/chibiostest/os/hal/src/tm.c ****      measurements.*/
 103:/usr/src/chibiostest/os/hal/src/tm.c ****   measurement_offset = 0;
 145              		.loc 1 103 0
 146 0004 0A4B     		ldr	r3, .L10
 147 0006 0022     		movs	r2, #0
 148 0008 1A60     		str	r2, [r3]
 104:/usr/src/chibiostest/os/hal/src/tm.c ****   tmObjectInit(&tm);
 149              		.loc 1 104 0
 150 000a 01AB     		add	r3, sp, #4
 151 000c 1846     		mov	r0, r3
 152 000e FFF7FEFF 		bl	tmObjectInit
 105:/usr/src/chibiostest/os/hal/src/tm.c ****   tmStartMeasurement(&tm);
 153              		.loc 1 105 0
 154 0012 019B     		ldr	r3, [sp, #4]
 155 0014 01AA     		add	r2, sp, #4
 156 0016 1046     		mov	r0, r2
 157 0018 9847     		blx	r3
 106:/usr/src/chibiostest/os/hal/src/tm.c ****   tmStopMeasurement(&tm);
 158              		.loc 1 106 0
 159 001a 029B     		ldr	r3, [sp, #8]
 160 001c 01AA     		add	r2, sp, #4
 161 001e 1046     		mov	r0, r2
 162 0020 9847     		blx	r3
 107:/usr/src/chibiostest/os/hal/src/tm.c ****   measurement_offset = tm.last;
 163              		.loc 1 107 0
 164 0022 039A     		ldr	r2, [sp, #12]
 165 0024 024B     		ldr	r3, .L10
 166 0026 1A60     		str	r2, [r3]
 108:/usr/src/chibiostest/os/hal/src/tm.c **** }
 167              		.loc 1 108 0
 168 0028 07B0     		add	sp, sp, #28
 169              		@ sp needed
 170 002a 5DF804FB 		ldr	pc, [sp], #4
 171              	.L11:
 172 002e 00BF     		.align	2
 173              	.L10:
 174 0030 00000000 		.word	measurement_offset
 175              		.cfi_endproc
 176              	.LFE120:
 178 0034 AFF30080 		.section	.text.tmObjectInit,"ax",%progbits
 178      AFF30080 
 178      AFF30080 
 179              		.align	2
 180              		.p2align 4,,15
 181              		.global	tmObjectInit
 182              		.thumb
 183              		.thumb_func
 185              	tmObjectInit:
 186              	.LFB121:
 109:/usr/src/chibiostest/os/hal/src/tm.c **** 
 110:/usr/src/chibiostest/os/hal/src/tm.c **** /**
 111:/usr/src/chibiostest/os/hal/src/tm.c ****  * @brief   Initializes a @p TimeMeasurement object.
 112:/usr/src/chibiostest/os/hal/src/tm.c ****  *
 113:/usr/src/chibiostest/os/hal/src/tm.c ****  * @param[out] tmp      pointer to a @p TimeMeasurement structure
 114:/usr/src/chibiostest/os/hal/src/tm.c ****  *
 115:/usr/src/chibiostest/os/hal/src/tm.c ****  * @init
 116:/usr/src/chibiostest/os/hal/src/tm.c ****  */
 117:/usr/src/chibiostest/os/hal/src/tm.c **** void tmObjectInit(TimeMeasurement *tmp) {
 187              		.loc 1 117 0
 188              		.cfi_startproc
 189              		@ args = 0, pretend = 0, frame = 8
 190              		@ frame_needed = 0, uses_anonymous_args = 0
 191              		@ link register save eliminated.
 192 0000 82B0     		sub	sp, sp, #8
 193              		.cfi_def_cfa_offset 8
 194 0002 0190     		str	r0, [sp, #4]
 118:/usr/src/chibiostest/os/hal/src/tm.c **** 
 119:/usr/src/chibiostest/os/hal/src/tm.c ****   tmp->start = tm_start;
 195              		.loc 1 119 0
 196 0004 019B     		ldr	r3, [sp, #4]
 197 0006 084A     		ldr	r2, .L13
 198 0008 1A60     		str	r2, [r3]
 120:/usr/src/chibiostest/os/hal/src/tm.c ****   tmp->stop  = tm_stop;
 199              		.loc 1 120 0
 200 000a 019B     		ldr	r3, [sp, #4]
 201 000c 074A     		ldr	r2, .L13+4
 202 000e 5A60     		str	r2, [r3, #4]
 121:/usr/src/chibiostest/os/hal/src/tm.c ****   tmp->last  = (halrtcnt_t)0;
 203              		.loc 1 121 0
 204 0010 019B     		ldr	r3, [sp, #4]
 205 0012 0022     		movs	r2, #0
 206 0014 9A60     		str	r2, [r3, #8]
 122:/usr/src/chibiostest/os/hal/src/tm.c ****   tmp->worst = (halrtcnt_t)0;
 207              		.loc 1 122 0
 208 0016 019B     		ldr	r3, [sp, #4]
 209 0018 0022     		movs	r2, #0
 210 001a DA60     		str	r2, [r3, #12]
 123:/usr/src/chibiostest/os/hal/src/tm.c ****   tmp->best  = (halrtcnt_t)-1;
 211              		.loc 1 123 0
 212 001c 019B     		ldr	r3, [sp, #4]
 213 001e 4FF0FF32 		mov	r2, #-1
 214 0022 1A61     		str	r2, [r3, #16]
 124:/usr/src/chibiostest/os/hal/src/tm.c **** }
 215              		.loc 1 124 0
 216 0024 02B0     		add	sp, sp, #8
 217              		@ sp needed
 218 0026 7047     		bx	lr
 219              	.L14:
 220              		.align	2
 221              	.L13:
 222 0028 00000000 		.word	tm_start
 223 002c 00000000 		.word	tm_stop
 224              		.cfi_endproc
 225              	.LFE121:
 227              		.text
 228              	.Letext0:
 229              		.file 2 "/usr/include/newlib/machine/_default_types.h"
 230              		.file 3 "/usr/include/newlib/stdint.h"
 231              		.file 4 "/usr/src/chibiostest/os/ports/common/ARMCMx/nvic.h"
 232              		.file 5 "/usr/src/chibiostest/os/hal/platforms/STM32F4xx/hal_lld.h"
 233              		.file 6 "/usr/src/chibiostest/os/hal/include/tm.h"
 234              		.file 7 "/usr/src/chibiostest/os/ports/common/ARMCMx/CMSIS/include/core_cm4.h"